; Listing generated by Microsoft (R) Optimizing Compiler Version 14.00.50727.42 

	TITLE	d:\Git_ZQProjs\ZQproj\Generic\CdmiFuse\jsoncpp-src-0.5.0\src\lib_json\json_value.cpp
	.686P
	.XMM
	include listing.inc
	.model	flat

INCLUDELIB MSVCRT

PUBLIC	??_C@_0P@GHFPNOJB@bad?5allocation?$AA@		; `string'
PUBLIC	?minInt@Value@Json@@2HB				; Json::Value::minInt
PUBLIC	?maxInt@Value@Json@@2HB				; Json::Value::maxInt
PUBLIC	?maxUInt@Value@Json@@2IB			; Json::Value::maxUInt
PUBLIC	?minInt64@Value@Json@@2_JB			; Json::Value::minInt64
PUBLIC	?maxInt64@Value@Json@@2_JB			; Json::Value::maxInt64
PUBLIC	?maxUInt64@Value@Json@@2_KB			; Json::Value::maxUInt64
CONST	SEGMENT
?minInt@Value@Json@@2HB DD 080000000H			; Json::Value::minInt
?maxInt@Value@Json@@2HB DD 07fffffffH			; Json::Value::maxInt
?maxUInt@Value@Json@@2IB DD 0ffffffffH			; Json::Value::maxUInt
	ORG $+4
?minInt64@Value@Json@@2_JB DQ 8000000000000000H		; Json::Value::minInt64
?maxInt64@Value@Json@@2_JB DQ 7fffffffffffffffH		; Json::Value::maxInt64
?maxUInt64@Value@Json@@2_KB DQ ffffffffffffffffH	; Json::Value::maxUInt64
CONST	ENDS
_DATA	SEGMENT
__bad_alloc_Message DD FLAT:??_C@_0P@GHFPNOJB@bad?5allocation?$AA@
_DATA	ENDS
;	COMDAT ??_C@_0P@GHFPNOJB@bad?5allocation?$AA@
CONST	SEGMENT
??_C@_0P@GHFPNOJB@bad?5allocation?$AA@ DB 'bad allocation', 00H ; `string'
CONST	ENDS
PUBLIC	??_7ValueAllocator@Json@@6B@			; Json::ValueAllocator::`vftable'
PUBLIC	??1ValueAllocator@Json@@UAE@XZ			; Json::ValueAllocator::~ValueAllocator
PUBLIC	??_R4ValueAllocator@Json@@6B@			; Json::ValueAllocator::`RTTI Complete Object Locator'
PUBLIC	??_R0?AVValueAllocator@Json@@@8			; Json::ValueAllocator `RTTI Type Descriptor'
PUBLIC	??_R3ValueAllocator@Json@@8			; Json::ValueAllocator::`RTTI Class Hierarchy Descriptor'
PUBLIC	??_R2ValueAllocator@Json@@8			; Json::ValueAllocator::`RTTI Base Class Array'
PUBLIC	??_R1A@?0A@EA@ValueAllocator@Json@@8		; Json::ValueAllocator::`RTTI Base Class Descriptor at (0,-1,0,64)'
EXTRN	??_7type_info@@6B@:QWORD			; type_info::`vftable'
EXTRN	??_EValueAllocator@Json@@UAEPAXI@Z:PROC		; Json::ValueAllocator::`vector deleting destructor'
EXTRN	__purecall:PROC
;	COMDAT ??_R1A@?0A@EA@ValueAllocator@Json@@8
; File d:\git_zqprojs\zqproj\generic\cdmifuse\jsoncpp-src-0.5.0\src\lib_json\json_value.cpp
rdata$r	SEGMENT
??_R1A@?0A@EA@ValueAllocator@Json@@8 DD FLAT:??_R0?AVValueAllocator@Json@@@8 ; Json::ValueAllocator::`RTTI Base Class Descriptor at (0,-1,0,64)'
	DD	00H
	DD	00H
	DD	0ffffffffH
	DD	00H
	DD	040H
	DD	FLAT:??_R3ValueAllocator@Json@@8
rdata$r	ENDS
;	COMDAT ??_R2ValueAllocator@Json@@8
rdata$r	SEGMENT
??_R2ValueAllocator@Json@@8 DD FLAT:??_R1A@?0A@EA@ValueAllocator@Json@@8 ; Json::ValueAllocator::`RTTI Base Class Array'
rdata$r	ENDS
;	COMDAT ??_R3ValueAllocator@Json@@8
rdata$r	SEGMENT
??_R3ValueAllocator@Json@@8 DD 00H			; Json::ValueAllocator::`RTTI Class Hierarchy Descriptor'
	DD	00H
	DD	01H
	DD	FLAT:??_R2ValueAllocator@Json@@8
rdata$r	ENDS
;	COMDAT ??_R0?AVValueAllocator@Json@@@8
_DATA	SEGMENT
??_R0?AVValueAllocator@Json@@@8 DD FLAT:??_7type_info@@6B@ ; Json::ValueAllocator `RTTI Type Descriptor'
	DD	00H
	DB	'.?AVValueAllocator@Json@@', 00H
_DATA	ENDS
;	COMDAT ??_R4ValueAllocator@Json@@6B@
rdata$r	SEGMENT
??_R4ValueAllocator@Json@@6B@ DD 00H			; Json::ValueAllocator::`RTTI Complete Object Locator'
	DD	00H
	DD	00H
	DD	FLAT:??_R0?AVValueAllocator@Json@@@8
	DD	FLAT:??_R3ValueAllocator@Json@@8
rdata$r	ENDS
;	COMDAT ??_7ValueAllocator@Json@@6B@
CONST	SEGMENT
??_7ValueAllocator@Json@@6B@ DD FLAT:??_R4ValueAllocator@Json@@6B@ ; Json::ValueAllocator::`vftable'
	DD	FLAT:??_EValueAllocator@Json@@UAEPAXI@Z
	DD	FLAT:__purecall
	DD	FLAT:__purecall
	DD	FLAT:__purecall
	DD	FLAT:__purecall
; Function compile flags: /Odtp
CONST	ENDS
;	COMDAT ??1ValueAllocator@Json@@UAE@XZ
_TEXT	SEGMENT
_this$ = -4						; size = 4
??1ValueAllocator@Json@@UAE@XZ PROC			; Json::ValueAllocator::~ValueAllocator, COMDAT
; _this$ = ecx

; 60   : {

	push	ebp
	mov	ebp, esp
	push	ecx
	mov	DWORD PTR _this$[ebp], ecx
	mov	eax, DWORD PTR _this$[ebp]
	mov	DWORD PTR [eax], OFFSET ??_7ValueAllocator@Json@@6B@

; 61   : }

	mov	esp, ebp
	pop	ebp
	ret	0
??1ValueAllocator@Json@@UAE@XZ ENDP			; Json::ValueAllocator::~ValueAllocator
_TEXT	ENDS
EXTRN	??3@YAXPAX@Z:PROC				; operator delete
; Function compile flags: /Odtp
;	COMDAT ??_GValueAllocator@Json@@UAEPAXI@Z
_TEXT	SEGMENT
_this$ = -4						; size = 4
___flags$ = 8						; size = 4
??_GValueAllocator@Json@@UAEPAXI@Z PROC			; Json::ValueAllocator::`scalar deleting destructor', COMDAT
; _this$ = ecx
	push	ebp
	mov	ebp, esp
	push	ecx
	mov	DWORD PTR _this$[ebp], ecx
	mov	ecx, DWORD PTR _this$[ebp]
	call	??1ValueAllocator@Json@@UAE@XZ		; Json::ValueAllocator::~ValueAllocator
	mov	eax, DWORD PTR ___flags$[ebp]
	and	eax, 1
	je	SHORT $LN1@scalar
	mov	ecx, DWORD PTR _this$[ebp]
	push	ecx
	call	??3@YAXPAX@Z				; operator delete
	add	esp, 4
$LN1@scalar:
	mov	eax, DWORD PTR _this$[ebp]
	mov	esp, ebp
	pop	ebp
	ret	4
??_GValueAllocator@Json@@UAEPAXI@Z ENDP			; Json::ValueAllocator::`scalar deleting destructor'
_TEXT	ENDS
PUBLIC	??0iterator@?$_Tree@V?$_Tmap_traits@VCZString@Value@Json@@V23@U?$less@VCZString@Value@Json@@@std@@V?$allocator@U?$pair@$$CBVCZString@Value@Json@@V23@@std@@@5@$0A@@std@@@std@@QAE@XZ ; std::_Tree<std::_Tmap_traits<Json::Value::CZString,Json::Value,std::less<Json::Value::CZString>,std::allocator<std::pair<Json::Value::CZString const ,Json::Value> >,0> >::iterator::iterator
PUBLIC	??0ValueIteratorBase@Json@@QAE@XZ		; Json::ValueIteratorBase::ValueIteratorBase
; Function compile flags: /Odtp
; File d:\git_zqprojs\zqproj\generic\cdmifuse\jsoncpp-src-0.5.0\src\lib_json\json_valueiterator.inl
;	COMDAT ??0ValueIteratorBase@Json@@QAE@XZ
_TEXT	SEGMENT
_this$ = -4						; size = 4
??0ValueIteratorBase@Json@@QAE@XZ PROC			; Json::ValueIteratorBase::ValueIteratorBase, COMDAT
; _this$ = ecx

; 17   : {

	push	ebp
	mov	ebp, esp
	push	ecx
	mov	DWORD PTR _this$[ebp], ecx
	mov	ecx, DWORD PTR _this$[ebp]
	call	??0iterator@?$_Tree@V?$_Tmap_traits@VCZString@Value@Json@@V23@U?$less@VCZString@Value@Json@@@std@@V?$allocator@U?$pair@$$CBVCZString@Value@Json@@V23@@std@@@5@$0A@@std@@@std@@QAE@XZ ; std::_Tree<std::_Tmap_traits<Json::Value::CZString,Json::Value,std::less<Json::Value::CZString>,std::allocator<std::pair<Json::Value::CZString const ,Json::Value> >,0> >::iterator::iterator
	mov	eax, DWORD PTR _this$[ebp]
	mov	BYTE PTR [eax+8], 1

; 18   : }

	mov	eax, DWORD PTR _this$[ebp]
	mov	esp, ebp
	pop	ebp
	ret	0
??0ValueIteratorBase@Json@@QAE@XZ ENDP			; Json::ValueIteratorBase::ValueIteratorBase
_TEXT	ENDS
PUBLIC	??0ValueIteratorBase@Json@@QAE@ABViterator@?$_Tree@V?$_Tmap_traits@VCZString@Value@Json@@V23@U?$less@VCZString@Value@Json@@@std@@V?$allocator@U?$pair@$$CBVCZString@Value@Json@@V23@@std@@@5@$0A@@std@@@std@@@Z ; Json::ValueIteratorBase::ValueIteratorBase
; Function compile flags: /Odtp
;	COMDAT ??0ValueIteratorBase@Json@@QAE@ABViterator@?$_Tree@V?$_Tmap_traits@VCZString@Value@Json@@V23@U?$less@VCZString@Value@Json@@@std@@V?$allocator@U?$pair@$$CBVCZString@Value@Json@@V23@@std@@@5@$0A@@std@@@std@@@Z
_TEXT	SEGMENT
_this$ = -4						; size = 4
_current$ = 8						; size = 4
??0ValueIteratorBase@Json@@QAE@ABViterator@?$_Tree@V?$_Tmap_traits@VCZString@Value@Json@@V23@U?$less@VCZString@Value@Json@@@std@@V?$allocator@U?$pair@$$CBVCZString@Value@Json@@V23@@std@@@5@$0A@@std@@@std@@@Z PROC ; Json::ValueIteratorBase::ValueIteratorBase, COMDAT
; _this$ = ecx

; 32   : {

	push	ebp
	mov	ebp, esp
	push	ecx
	mov	DWORD PTR _this$[ebp], ecx
	mov	eax, DWORD PTR _current$[ebp]
	mov	ecx, DWORD PTR [eax]
	mov	edx, DWORD PTR [eax+4]
	mov	eax, DWORD PTR _this$[ebp]
	mov	DWORD PTR [eax], ecx
	mov	DWORD PTR [eax+4], edx
	mov	ecx, DWORD PTR _this$[ebp]
	mov	BYTE PTR [ecx+8], 0

; 33   : }

	mov	eax, DWORD PTR _this$[ebp]
	mov	esp, ebp
	pop	ebp
	ret	4
??0ValueIteratorBase@Json@@QAE@ABViterator@?$_Tree@V?$_Tmap_traits@VCZString@Value@Json@@V23@U?$less@VCZString@Value@Json@@@std@@V?$allocator@U?$pair@$$CBVCZString@Value@Json@@V23@@std@@@5@$0A@@std@@@std@@@Z ENDP ; Json::ValueIteratorBase::ValueIteratorBase
_TEXT	ENDS
PUBLIC	??Citerator@?$_Tree@V?$_Tmap_traits@VCZString@Value@Json@@V23@U?$less@VCZString@Value@Json@@@std@@V?$allocator@U?$pair@$$CBVCZString@Value@Json@@V23@@std@@@5@$0A@@std@@@std@@QBEPAU?$pair@$$CBVCZString@Value@Json@@V23@@2@XZ ; std::_Tree<std::_Tmap_traits<Json::Value::CZString,Json::Value,std::less<Json::Value::CZString>,std::allocator<std::pair<Json::Value::CZString const ,Json::Value> >,0> >::iterator::operator->
PUBLIC	?deref@ValueIteratorBase@Json@@IBEAAVValue@2@XZ	; Json::ValueIteratorBase::deref
; Function compile flags: /Odtp
;	COMDAT ?deref@ValueIteratorBase@Json@@IBEAAVValue@2@XZ
_TEXT	SEGMENT
_this$ = -4						; size = 4
?deref@ValueIteratorBase@Json@@IBEAAVValue@2@XZ PROC	; Json::ValueIteratorBase::deref, COMDAT
; _this$ = ecx

; 51   : {

	push	ebp
	mov	ebp, esp
	push	ecx
	mov	DWORD PTR _this$[ebp], ecx

; 52   : #ifndef JSON_VALUE_USE_INTERNAL_MAP
; 53   :    return current_->second;

	mov	ecx, DWORD PTR _this$[ebp]
	call	??Citerator@?$_Tree@V?$_Tmap_traits@VCZString@Value@Json@@V23@U?$less@VCZString@Value@Json@@@std@@V?$allocator@U?$pair@$$CBVCZString@Value@Json@@V23@@std@@@5@$0A@@std@@@std@@QBEPAU?$pair@$$CBVCZString@Value@Json@@V23@@2@XZ ; std::_Tree<std::_Tmap_traits<Json::Value::CZString,Json::Value,std::less<Json::Value::CZString>,std::allocator<std::pair<Json::Value::CZString const ,Json::Value> >,0> >::iterator::operator->
	add	eax, 8

; 54   : #else
; 55   :    if ( isArray_ )
; 56   :       return ValueInternalArray::dereference( iterator_.array_ );
; 57   :    return ValueInternalMap::value( iterator_.map_ );
; 58   : #endif
; 59   : }

	mov	esp, ebp
	pop	ebp
	ret	0
?deref@ValueIteratorBase@Json@@IBEAAVValue@2@XZ ENDP	; Json::ValueIteratorBase::deref
_TEXT	ENDS
PUBLIC	??Eiterator@?$_Tree@V?$_Tmap_traits@VCZString@Value@Json@@V23@U?$less@VCZString@Value@Json@@@std@@V?$allocator@U?$pair@$$CBVCZString@Value@Json@@V23@@std@@@5@$0A@@std@@@std@@QAEAAV012@XZ ; std::_Tree<std::_Tmap_traits<Json::Value::CZString,Json::Value,std::less<Json::Value::CZString>,std::allocator<std::pair<Json::Value::CZString const ,Json::Value> >,0> >::iterator::operator++
PUBLIC	?increment@ValueIteratorBase@Json@@IAEXXZ	; Json::ValueIteratorBase::increment
; Function compile flags: /Odtp
;	COMDAT ?increment@ValueIteratorBase@Json@@IAEXXZ
_TEXT	SEGMENT
_this$ = -4						; size = 4
?increment@ValueIteratorBase@Json@@IAEXXZ PROC		; Json::ValueIteratorBase::increment, COMDAT
; _this$ = ecx

; 64   : {

	push	ebp
	mov	ebp, esp
	push	ecx
	mov	DWORD PTR _this$[ebp], ecx

; 65   : #ifndef JSON_VALUE_USE_INTERNAL_MAP
; 66   :    ++current_;

	mov	ecx, DWORD PTR _this$[ebp]
	call	??Eiterator@?$_Tree@V?$_Tmap_traits@VCZString@Value@Json@@V23@U?$less@VCZString@Value@Json@@@std@@V?$allocator@U?$pair@$$CBVCZString@Value@Json@@V23@@std@@@5@$0A@@std@@@std@@QAEAAV012@XZ ; std::_Tree<std::_Tmap_traits<Json::Value::CZString,Json::Value,std::less<Json::Value::CZString>,std::allocator<std::pair<Json::Value::CZString const ,Json::Value> >,0> >::iterator::operator++

; 67   : #else
; 68   :    if ( isArray_ )
; 69   :       ValueInternalArray::increment( iterator_.array_ );
; 70   :    ValueInternalMap::increment( iterator_.map_ );
; 71   : #endif
; 72   : }

	mov	esp, ebp
	pop	ebp
	ret	0
?increment@ValueIteratorBase@Json@@IAEXXZ ENDP		; Json::ValueIteratorBase::increment
_TEXT	ENDS
PUBLIC	??Fiterator@?$_Tree@V?$_Tmap_traits@VCZString@Value@Json@@V23@U?$less@VCZString@Value@Json@@@std@@V?$allocator@U?$pair@$$CBVCZString@Value@Json@@V23@@std@@@5@$0A@@std@@@std@@QAEAAV012@XZ ; std::_Tree<std::_Tmap_traits<Json::Value::CZString,Json::Value,std::less<Json::Value::CZString>,std::allocator<std::pair<Json::Value::CZString const ,Json::Value> >,0> >::iterator::operator--
PUBLIC	?decrement@ValueIteratorBase@Json@@IAEXXZ	; Json::ValueIteratorBase::decrement
; Function compile flags: /Odtp
;	COMDAT ?decrement@ValueIteratorBase@Json@@IAEXXZ
_TEXT	SEGMENT
_this$ = -4						; size = 4
?decrement@ValueIteratorBase@Json@@IAEXXZ PROC		; Json::ValueIteratorBase::decrement, COMDAT
; _this$ = ecx

; 77   : {

	push	ebp
	mov	ebp, esp
	push	ecx
	mov	DWORD PTR _this$[ebp], ecx

; 78   : #ifndef JSON_VALUE_USE_INTERNAL_MAP
; 79   :    --current_;

	mov	ecx, DWORD PTR _this$[ebp]
	call	??Fiterator@?$_Tree@V?$_Tmap_traits@VCZString@Value@Json@@V23@U?$less@VCZString@Value@Json@@@std@@V?$allocator@U?$pair@$$CBVCZString@Value@Json@@V23@@std@@@5@$0A@@std@@@std@@QAEAAV012@XZ ; std::_Tree<std::_Tmap_traits<Json::Value::CZString,Json::Value,std::less<Json::Value::CZString>,std::allocator<std::pair<Json::Value::CZString const ,Json::Value> >,0> >::iterator::operator--

; 80   : #else
; 81   :    if ( isArray_ )
; 82   :       ValueInternalArray::decrement( iterator_.array_ );
; 83   :    ValueInternalMap::decrement( iterator_.map_ );
; 84   : #endif
; 85   : }

	mov	esp, ebp
	pop	ebp
	ret	0
?decrement@ValueIteratorBase@Json@@IAEXXZ ENDP		; Json::ValueIteratorBase::decrement
_TEXT	ENDS
PUBLIC	??9const_iterator@?$_Tree@V?$_Tmap_traits@VCZString@Value@Json@@V23@U?$less@VCZString@Value@Json@@@std@@V?$allocator@U?$pair@$$CBVCZString@Value@Json@@V23@@std@@@5@$0A@@std@@@std@@QBE_NABV012@@Z ; std::_Tree<std::_Tmap_traits<Json::Value::CZString,Json::Value,std::less<Json::Value::CZString>,std::allocator<std::pair<Json::Value::CZString const ,Json::Value> >,0> >::const_iterator::operator!=
PUBLIC	?computeDistance@ValueIteratorBase@Json@@IBEHABV12@@Z ; Json::ValueIteratorBase::computeDistance
; Function compile flags: /Odtp
;	COMDAT ?computeDistance@ValueIteratorBase@Json@@IBEHABV12@@Z
_TEXT	SEGMENT
_this$ = -16						; size = 4
_it$20948 = -12						; size = 8
_myDistance$ = -4					; size = 4
_other$ = 8						; size = 4
?computeDistance@ValueIteratorBase@Json@@IBEHABV12@@Z PROC ; Json::ValueIteratorBase::computeDistance, COMDAT
; _this$ = ecx

; 90   : {

	push	ebp
	mov	ebp, esp
	sub	esp, 16					; 00000010H
	mov	DWORD PTR _this$[ebp], ecx

; 91   : #ifndef JSON_VALUE_USE_INTERNAL_MAP
; 92   : # ifdef JSON_USE_CPPTL_SMALLMAP
; 93   :    return current_ - other.current_;
; 94   : # else
; 95   :    // Iterator for null value are initialized using the default
; 96   :    // constructor, which initialize current_ to the default
; 97   :    // std::map::iterator. As begin() and end() are two instance 
; 98   :    // of the default std::map::iterator, they can not be compared.
; 99   :    // To allow this, we handle this comparison specifically.
; 100  :    if ( isNull_  &&  other.isNull_ )

	mov	eax, DWORD PTR _this$[ebp]
	movzx	ecx, BYTE PTR [eax+8]
	test	ecx, ecx
	je	SHORT $LN4@computeDis
	mov	edx, DWORD PTR _other$[ebp]
	movzx	eax, BYTE PTR [edx+8]
	test	eax, eax
	je	SHORT $LN4@computeDis

; 101  :    {
; 102  :       return 0;

	xor	eax, eax
	jmp	SHORT $LN5@computeDis
$LN4@computeDis:

; 103  :    }
; 104  : 
; 105  : 
; 106  :    // Usage of std::distance is not portable (does not compile with Sun Studio 12 RogueWave STL,
; 107  :    // which is the one used by default).
; 108  :    // Using a portable hand-made version for non random iterator instead:
; 109  :    //   return difference_type( std::distance( current_, other.current_ ) );
; 110  :    difference_type myDistance = 0;

	mov	DWORD PTR _myDistance$[ebp], 0

; 111  :    for ( Value::ObjectValues::iterator it = current_; it != other.current_; ++it )

	mov	ecx, DWORD PTR _this$[ebp]
	mov	edx, DWORD PTR [ecx]
	mov	eax, DWORD PTR [ecx+4]
	mov	DWORD PTR _it$20948[ebp], edx
	mov	DWORD PTR _it$20948[ebp+4], eax
	jmp	SHORT $LN3@computeDis
$LN2@computeDis:
	lea	ecx, DWORD PTR _it$20948[ebp]
	call	??Eiterator@?$_Tree@V?$_Tmap_traits@VCZString@Value@Json@@V23@U?$less@VCZString@Value@Json@@@std@@V?$allocator@U?$pair@$$CBVCZString@Value@Json@@V23@@std@@@5@$0A@@std@@@std@@QAEAAV012@XZ ; std::_Tree<std::_Tmap_traits<Json::Value::CZString,Json::Value,std::less<Json::Value::CZString>,std::allocator<std::pair<Json::Value::CZString const ,Json::Value> >,0> >::iterator::operator++
$LN3@computeDis:
	mov	ecx, DWORD PTR _other$[ebp]
	push	ecx
	lea	ecx, DWORD PTR _it$20948[ebp]
	call	??9const_iterator@?$_Tree@V?$_Tmap_traits@VCZString@Value@Json@@V23@U?$less@VCZString@Value@Json@@@std@@V?$allocator@U?$pair@$$CBVCZString@Value@Json@@V23@@std@@@5@$0A@@std@@@std@@QBE_NABV012@@Z ; std::_Tree<std::_Tmap_traits<Json::Value::CZString,Json::Value,std::less<Json::Value::CZString>,std::allocator<std::pair<Json::Value::CZString const ,Json::Value> >,0> >::const_iterator::operator!=
	movzx	edx, al
	test	edx, edx
	je	SHORT $LN1@computeDis

; 112  :    {
; 113  :       ++myDistance;

	mov	eax, DWORD PTR _myDistance$[ebp]
	add	eax, 1
	mov	DWORD PTR _myDistance$[ebp], eax

; 114  :    }

	jmp	SHORT $LN2@computeDis
$LN1@computeDis:

; 115  :    return myDistance;

	mov	eax, DWORD PTR _myDistance$[ebp]
$LN5@computeDis:

; 116  : # endif
; 117  : #else
; 118  :    if ( isArray_ )
; 119  :       return ValueInternalArray::distance( iterator_.array_, other.iterator_.array_ );
; 120  :    return ValueInternalMap::distance( iterator_.map_, other.iterator_.map_ );
; 121  : #endif
; 122  : }

	mov	esp, ebp
	pop	ebp
	ret	4
?computeDistance@ValueIteratorBase@Json@@IBEHABV12@@Z ENDP ; Json::ValueIteratorBase::computeDistance
_TEXT	ENDS
PUBLIC	??8const_iterator@?$_Tree@V?$_Tmap_traits@VCZString@Value@Json@@V23@U?$less@VCZString@Value@Json@@@std@@V?$allocator@U?$pair@$$CBVCZString@Value@Json@@V23@@std@@@5@$0A@@std@@@std@@QBE_NABV012@@Z ; std::_Tree<std::_Tmap_traits<Json::Value::CZString,Json::Value,std::less<Json::Value::CZString>,std::allocator<std::pair<Json::Value::CZString const ,Json::Value> >,0> >::const_iterator::operator==
PUBLIC	?isEqual@ValueIteratorBase@Json@@IBE_NABV12@@Z	; Json::ValueIteratorBase::isEqual
; Function compile flags: /Odtp
;	COMDAT ?isEqual@ValueIteratorBase@Json@@IBE_NABV12@@Z
_TEXT	SEGMENT
_this$ = -4						; size = 4
_other$ = 8						; size = 4
?isEqual@ValueIteratorBase@Json@@IBE_NABV12@@Z PROC	; Json::ValueIteratorBase::isEqual, COMDAT
; _this$ = ecx

; 127  : {

	push	ebp
	mov	ebp, esp
	push	ecx
	mov	DWORD PTR _this$[ebp], ecx

; 128  : #ifndef JSON_VALUE_USE_INTERNAL_MAP
; 129  :    if ( isNull_ )

	mov	eax, DWORD PTR _this$[ebp]
	movzx	ecx, BYTE PTR [eax+8]
	test	ecx, ecx
	je	SHORT $LN1@isEqual

; 130  :    {
; 131  :       return other.isNull_;

	mov	edx, DWORD PTR _other$[ebp]
	mov	al, BYTE PTR [edx+8]
	jmp	SHORT $LN2@isEqual
$LN1@isEqual:

; 132  :    }
; 133  :    return current_ == other.current_;

	mov	eax, DWORD PTR _other$[ebp]
	push	eax
	mov	ecx, DWORD PTR _this$[ebp]
	call	??8const_iterator@?$_Tree@V?$_Tmap_traits@VCZString@Value@Json@@V23@U?$less@VCZString@Value@Json@@@std@@V?$allocator@U?$pair@$$CBVCZString@Value@Json@@V23@@std@@@5@$0A@@std@@@std@@QBE_NABV012@@Z ; std::_Tree<std::_Tmap_traits<Json::Value::CZString,Json::Value,std::less<Json::Value::CZString>,std::allocator<std::pair<Json::Value::CZString const ,Json::Value> >,0> >::const_iterator::operator==
$LN2@isEqual:

; 134  : #else
; 135  :    if ( isArray_ )
; 136  :       return ValueInternalArray::equals( iterator_.array_, other.iterator_.array_ );
; 137  :    return ValueInternalMap::equals( iterator_.map_, other.iterator_.map_ );
; 138  : #endif
; 139  : }

	mov	esp, ebp
	pop	ebp
	ret	4
?isEqual@ValueIteratorBase@Json@@IBE_NABV12@@Z ENDP	; Json::ValueIteratorBase::isEqual
_TEXT	ENDS
PUBLIC	?copy@ValueIteratorBase@Json@@IAEXABV12@@Z	; Json::ValueIteratorBase::copy
; Function compile flags: /Odtp
;	COMDAT ?copy@ValueIteratorBase@Json@@IAEXABV12@@Z
_TEXT	SEGMENT
_this$ = -4						; size = 4
_other$ = 8						; size = 4
?copy@ValueIteratorBase@Json@@IAEXABV12@@Z PROC		; Json::ValueIteratorBase::copy, COMDAT
; _this$ = ecx

; 144  : {

	push	ebp
	mov	ebp, esp
	push	ecx
	mov	DWORD PTR _this$[ebp], ecx

; 145  : #ifndef JSON_VALUE_USE_INTERNAL_MAP
; 146  :    current_ = other.current_;

	mov	eax, DWORD PTR _other$[ebp]
	mov	ecx, DWORD PTR [eax]
	mov	edx, DWORD PTR [eax+4]
	mov	eax, DWORD PTR _this$[ebp]
	mov	DWORD PTR [eax], ecx
	mov	DWORD PTR [eax+4], edx

; 147  :    isNull_ = other.isNull_;

	mov	ecx, DWORD PTR _this$[ebp]
	mov	edx, DWORD PTR _other$[ebp]
	mov	al, BYTE PTR [edx+8]
	mov	BYTE PTR [ecx+8], al

; 148  : #else
; 149  :    if ( isArray_ )
; 150  :       iterator_.array_ = other.iterator_.array_;
; 151  :    iterator_.map_ = other.iterator_.map_;
; 152  : #endif
; 153  : }

	mov	esp, ebp
	pop	ebp
	ret	4
?copy@ValueIteratorBase@Json@@IAEXABV12@@Z ENDP		; Json::ValueIteratorBase::copy
_TEXT	ENDS
PUBLIC	??1Value@Json@@QAE@XZ				; Json::Value::~Value
PUBLIC	??0Value@Json@@QAE@H@Z				; Json::Value::Value
PUBLIC	?index@CZString@Value@Json@@QBEHXZ		; Json::Value::CZString::index
PUBLIC	??0Value@Json@@QAE@PBD@Z			; Json::Value::Value
PUBLIC	??1CZString@Value@Json@@QAE@XZ			; Json::Value::CZString::~CZString
PUBLIC	??0Value@Json@@QAE@ABVStaticString@1@@Z		; Json::Value::Value
PUBLIC	??0StaticString@Json@@QAE@PBD@Z			; Json::StaticString::StaticString
PUBLIC	?isStaticString@CZString@Value@Json@@QBE_NXZ	; Json::Value::CZString::isStaticString
PUBLIC	?c_str@CZString@Value@Json@@QBEPBDXZ		; Json::Value::CZString::c_str
PUBLIC	??0CZString@Value@Json@@QAE@ABV012@@Z		; Json::Value::CZString::CZString
PUBLIC	??Diterator@?$_Tree@V?$_Tmap_traits@VCZString@Value@Json@@V23@U?$less@VCZString@Value@Json@@@std@@V?$allocator@U?$pair@$$CBVCZString@Value@Json@@V23@@std@@@5@$0A@@std@@@std@@QBEAAU?$pair@$$CBVCZString@Value@Json@@V23@@2@XZ ; std::_Tree<std::_Tmap_traits<Json::Value::CZString,Json::Value,std::less<Json::Value::CZString>,std::allocator<std::pair<Json::Value::CZString const ,Json::Value> >,0> >::iterator::operator*
PUBLIC	?key@ValueIteratorBase@Json@@QBE?AVValue@2@XZ	; Json::ValueIteratorBase::key
EXTRN	___security_cookie:DWORD
EXTRN	___CxxFrameHandler3:PROC
EXTRN	@__security_check_cookie@4:PROC
;	COMDAT xdata$x
xdata$x	SEGMENT
__unwindtable$?key@ValueIteratorBase@Json@@QBE?AVValue@2@XZ DD 0ffffffffH
	DD	FLAT:__unwindfunclet$?key@ValueIteratorBase@Json@@QBE?AVValue@2@XZ$1
	DD	00H
	DD	FLAT:__unwindfunclet$?key@ValueIteratorBase@Json@@QBE?AVValue@2@XZ$0
__ehfuncinfo$?key@ValueIteratorBase@Json@@QBE?AVValue@2@XZ DD 019930522H
	DD	02H
	DD	FLAT:__unwindtable$?key@ValueIteratorBase@Json@@QBE?AVValue@2@XZ
	DD	2 DUP(00H)
	DD	2 DUP(00H)
	DD	00H
	DD	01H
; Function compile flags: /Odtp
xdata$x	ENDS
;	COMDAT ?key@ValueIteratorBase@Json@@QBE?AVValue@2@XZ
_TEXT	SEGMENT
_this$ = -32						; size = 4
$T30923 = -28						; size = 4
$T30920 = -24						; size = 4
_czstring$ = -20					; size = 8
__$EHRec$ = -12						; size = 12
___$ReturnUdt$ = 8					; size = 4
?key@ValueIteratorBase@Json@@QBE?AVValue@2@XZ PROC	; Json::ValueIteratorBase::key, COMDAT
; _this$ = ecx

; 158  : {

	push	ebp
	mov	ebp, esp
	push	-1
	push	__ehhandler$?key@ValueIteratorBase@Json@@QBE?AVValue@2@XZ
	mov	eax, DWORD PTR fs:0
	push	eax
	sub	esp, 20					; 00000014H
	mov	eax, DWORD PTR ___security_cookie
	xor	eax, ebp
	push	eax
	lea	eax, DWORD PTR __$EHRec$[ebp]
	mov	DWORD PTR fs:0, eax
	mov	DWORD PTR _this$[ebp], ecx
	mov	DWORD PTR $T30923[ebp], 0

; 159  : #ifndef JSON_VALUE_USE_INTERNAL_MAP
; 160  :    const Value::CZString czstring = (*current_).first;

	mov	ecx, DWORD PTR _this$[ebp]
	call	??Diterator@?$_Tree@V?$_Tmap_traits@VCZString@Value@Json@@V23@U?$less@VCZString@Value@Json@@@std@@V?$allocator@U?$pair@$$CBVCZString@Value@Json@@V23@@std@@@5@$0A@@std@@@std@@QBEAAU?$pair@$$CBVCZString@Value@Json@@V23@@2@XZ ; std::_Tree<std::_Tmap_traits<Json::Value::CZString,Json::Value,std::less<Json::Value::CZString>,std::allocator<std::pair<Json::Value::CZString const ,Json::Value> >,0> >::iterator::operator*
	push	eax
	lea	ecx, DWORD PTR _czstring$[ebp]
	call	??0CZString@Value@Json@@QAE@ABV012@@Z	; Json::Value::CZString::CZString
	mov	DWORD PTR __$EHRec$[ebp+8], 1

; 161  :    if ( czstring.c_str() )

	lea	ecx, DWORD PTR _czstring$[ebp]
	call	?c_str@CZString@Value@Json@@QBEPBDXZ	; Json::Value::CZString::c_str
	test	eax, eax
	je	SHORT $LN2@key

; 162  :    {
; 163  :       if ( czstring.isStaticString() )

	lea	ecx, DWORD PTR _czstring$[ebp]
	call	?isStaticString@CZString@Value@Json@@QBE_NXZ ; Json::Value::CZString::isStaticString
	movzx	eax, al
	test	eax, eax
	je	SHORT $LN1@key

; 164  :          return Value( StaticString( czstring.c_str() ) );

	lea	ecx, DWORD PTR _czstring$[ebp]
	call	?c_str@CZString@Value@Json@@QBEPBDXZ	; Json::Value::CZString::c_str
	push	eax
	lea	ecx, DWORD PTR $T30920[ebp]
	call	??0StaticString@Json@@QAE@PBD@Z		; Json::StaticString::StaticString
	push	eax
	mov	ecx, DWORD PTR ___$ReturnUdt$[ebp]
	call	??0Value@Json@@QAE@ABVStaticString@1@@Z	; Json::Value::Value
	mov	ecx, DWORD PTR $T30923[ebp]
	or	ecx, 1
	mov	DWORD PTR $T30923[ebp], ecx
	mov	BYTE PTR __$EHRec$[ebp+8], 0
	lea	ecx, DWORD PTR _czstring$[ebp]
	call	??1CZString@Value@Json@@QAE@XZ		; Json::Value::CZString::~CZString
	mov	eax, DWORD PTR ___$ReturnUdt$[ebp]
	jmp	SHORT $LN3@key
$LN1@key:

; 165  :       return Value( czstring.c_str() );

	lea	ecx, DWORD PTR _czstring$[ebp]
	call	?c_str@CZString@Value@Json@@QBEPBDXZ	; Json::Value::CZString::c_str
	push	eax
	mov	ecx, DWORD PTR ___$ReturnUdt$[ebp]
	call	??0Value@Json@@QAE@PBD@Z		; Json::Value::Value
	mov	edx, DWORD PTR $T30923[ebp]
	or	edx, 1
	mov	DWORD PTR $T30923[ebp], edx
	mov	BYTE PTR __$EHRec$[ebp+8], 0
	lea	ecx, DWORD PTR _czstring$[ebp]
	call	??1CZString@Value@Json@@QAE@XZ		; Json::Value::CZString::~CZString
	mov	eax, DWORD PTR ___$ReturnUdt$[ebp]
	jmp	SHORT $LN3@key
$LN2@key:

; 166  :    }
; 167  :    return Value( czstring.index() );

	lea	ecx, DWORD PTR _czstring$[ebp]
	call	?index@CZString@Value@Json@@QBEHXZ	; Json::Value::CZString::index
	push	eax
	mov	ecx, DWORD PTR ___$ReturnUdt$[ebp]
	call	??0Value@Json@@QAE@H@Z			; Json::Value::Value
	mov	eax, DWORD PTR $T30923[ebp]
	or	eax, 1
	mov	DWORD PTR $T30923[ebp], eax
	mov	BYTE PTR __$EHRec$[ebp+8], 0
	lea	ecx, DWORD PTR _czstring$[ebp]
	call	??1CZString@Value@Json@@QAE@XZ		; Json::Value::CZString::~CZString
	mov	eax, DWORD PTR ___$ReturnUdt$[ebp]
$LN3@key:

; 168  : #else
; 169  :    if ( isArray_ )
; 170  :       return Value( ValueInternalArray::indexOf( iterator_.array_ ) );
; 171  :    bool isStatic;
; 172  :    const char *memberName = ValueInternalMap::key( iterator_.map_, isStatic );
; 173  :    if ( isStatic )
; 174  :       return Value( StaticString( memberName ) );
; 175  :    return Value( memberName );
; 176  : #endif
; 177  : }

	mov	ecx, DWORD PTR __$EHRec$[ebp]
	mov	DWORD PTR fs:0, ecx
	pop	ecx
	mov	esp, ebp
	pop	ebp
	ret	4
_TEXT	ENDS
;	COMDAT text$x
text$x	SEGMENT
__unwindfunclet$?key@ValueIteratorBase@Json@@QBE?AVValue@2@XZ$0:
	lea	ecx, DWORD PTR _czstring$[ebp]
	jmp	??1CZString@Value@Json@@QAE@XZ		; Json::Value::CZString::~CZString
__unwindfunclet$?key@ValueIteratorBase@Json@@QBE?AVValue@2@XZ$1:
	mov	eax, DWORD PTR $T30923[ebp]
	and	eax, 1
	je	$LN7@key
	and	DWORD PTR $T30923[ebp], -2		; fffffffeH
	mov	ecx, DWORD PTR ___$ReturnUdt$[ebp]
	jmp	??1Value@Json@@QAE@XZ			; Json::Value::~Value
$LN7@key:
	ret	0
__ehhandler$?key@ValueIteratorBase@Json@@QBE?AVValue@2@XZ:
	mov	edx, DWORD PTR [esp+8]
	lea	eax, DWORD PTR [edx+12]
	mov	ecx, DWORD PTR [edx-24]
	xor	ecx, eax
	call	@__security_check_cookie@4
	mov	eax, OFFSET __ehfuncinfo$?key@ValueIteratorBase@Json@@QBE?AVValue@2@XZ
	jmp	___CxxFrameHandler3
text$x	ENDS
?key@ValueIteratorBase@Json@@QBE?AVValue@2@XZ ENDP	; Json::ValueIteratorBase::key
; Function compile flags: /Odtp
; File d:\git_zqprojs\zqproj\generic\cdmifuse\jsoncpp-src-0.5.0\include\json\value.h
;	COMDAT ??0StaticString@Json@@QAE@PBD@Z
_TEXT	SEGMENT
_this$ = -4						; size = 4
_czstring$ = 8						; size = 4
??0StaticString@Json@@QAE@PBD@Z PROC			; Json::StaticString::StaticString, COMDAT
; _this$ = ecx

; 67   :       {

	push	ebp
	mov	ebp, esp
	push	ecx
	mov	DWORD PTR _this$[ebp], ecx
	mov	eax, DWORD PTR _this$[ebp]
	mov	ecx, DWORD PTR _czstring$[ebp]
	mov	DWORD PTR [eax], ecx

; 68   :       }

	mov	eax, DWORD PTR _this$[ebp]
	mov	esp, ebp
	pop	ebp
	ret	4
??0StaticString@Json@@QAE@PBD@Z ENDP			; Json::StaticString::StaticString
_TEXT	ENDS
PUBLIC	?index@ValueIteratorBase@Json@@QBEIXZ		; Json::ValueIteratorBase::index
;	COMDAT xdata$x
; File d:\git_zqprojs\zqproj\generic\cdmifuse\jsoncpp-src-0.5.0\src\lib_json\json_valueiterator.inl
xdata$x	SEGMENT
__unwindtable$?index@ValueIteratorBase@Json@@QBEIXZ DD 0ffffffffH
	DD	FLAT:__unwindfunclet$?index@ValueIteratorBase@Json@@QBEIXZ$0
__ehfuncinfo$?index@ValueIteratorBase@Json@@QBEIXZ DD 019930522H
	DD	01H
	DD	FLAT:__unwindtable$?index@ValueIteratorBase@Json@@QBEIXZ
	DD	2 DUP(00H)
	DD	2 DUP(00H)
	DD	00H
	DD	01H
; Function compile flags: /Odtp
xdata$x	ENDS
;	COMDAT ?index@ValueIteratorBase@Json@@QBEIXZ
_TEXT	SEGMENT
_this$ = -32						; size = 4
$T30941 = -28						; size = 4
$T30940 = -24						; size = 4
_czstring$ = -20					; size = 8
__$EHRec$ = -12						; size = 12
?index@ValueIteratorBase@Json@@QBEIXZ PROC		; Json::ValueIteratorBase::index, COMDAT
; _this$ = ecx

; 182  : {

	push	ebp
	mov	ebp, esp
	push	-1
	push	__ehhandler$?index@ValueIteratorBase@Json@@QBEIXZ
	mov	eax, DWORD PTR fs:0
	push	eax
	sub	esp, 20					; 00000014H
	mov	eax, DWORD PTR ___security_cookie
	xor	eax, ebp
	push	eax
	lea	eax, DWORD PTR __$EHRec$[ebp]
	mov	DWORD PTR fs:0, eax
	mov	DWORD PTR _this$[ebp], ecx

; 183  : #ifndef JSON_VALUE_USE_INTERNAL_MAP
; 184  :    const Value::CZString czstring = (*current_).first;

	mov	ecx, DWORD PTR _this$[ebp]
	call	??Diterator@?$_Tree@V?$_Tmap_traits@VCZString@Value@Json@@V23@U?$less@VCZString@Value@Json@@@std@@V?$allocator@U?$pair@$$CBVCZString@Value@Json@@V23@@std@@@5@$0A@@std@@@std@@QBEAAU?$pair@$$CBVCZString@Value@Json@@V23@@2@XZ ; std::_Tree<std::_Tmap_traits<Json::Value::CZString,Json::Value,std::less<Json::Value::CZString>,std::allocator<std::pair<Json::Value::CZString const ,Json::Value> >,0> >::iterator::operator*
	push	eax
	lea	ecx, DWORD PTR _czstring$[ebp]
	call	??0CZString@Value@Json@@QAE@ABV012@@Z	; Json::Value::CZString::CZString
	mov	DWORD PTR __$EHRec$[ebp+8], 0

; 185  :    if ( !czstring.c_str() )

	lea	ecx, DWORD PTR _czstring$[ebp]
	call	?c_str@CZString@Value@Json@@QBEPBDXZ	; Json::Value::CZString::c_str
	test	eax, eax
	jne	SHORT $LN1@index

; 186  :       return czstring.index();

	lea	ecx, DWORD PTR _czstring$[ebp]
	call	?index@CZString@Value@Json@@QBEHXZ	; Json::Value::CZString::index
	mov	DWORD PTR $T30940[ebp], eax
	mov	DWORD PTR __$EHRec$[ebp+8], -1
	lea	ecx, DWORD PTR _czstring$[ebp]
	call	??1CZString@Value@Json@@QAE@XZ		; Json::Value::CZString::~CZString
	mov	eax, DWORD PTR $T30940[ebp]
	jmp	SHORT $LN2@index
$LN1@index:

; 187  :    return Value::UInt( -1 );

	mov	DWORD PTR $T30941[ebp], -1
	mov	DWORD PTR __$EHRec$[ebp+8], -1
	lea	ecx, DWORD PTR _czstring$[ebp]
	call	??1CZString@Value@Json@@QAE@XZ		; Json::Value::CZString::~CZString
	mov	eax, DWORD PTR $T30941[ebp]
$LN2@index:

; 188  : #else
; 189  :    if ( isArray_ )
; 190  :       return Value::UInt( ValueInternalArray::indexOf( iterator_.array_ ) );
; 191  :    return Value::UInt( -1 );
; 192  : #endif
; 193  : }

	mov	ecx, DWORD PTR __$EHRec$[ebp]
	mov	DWORD PTR fs:0, ecx
	pop	ecx
	mov	esp, ebp
	pop	ebp
	ret	0
_TEXT	ENDS
;	COMDAT text$x
text$x	SEGMENT
__unwindfunclet$?index@ValueIteratorBase@Json@@QBEIXZ$0:
	lea	ecx, DWORD PTR _czstring$[ebp]
	jmp	??1CZString@Value@Json@@QAE@XZ		; Json::Value::CZString::~CZString
__ehhandler$?index@ValueIteratorBase@Json@@QBEIXZ:
	mov	edx, DWORD PTR [esp+8]
	lea	eax, DWORD PTR [edx+12]
	mov	ecx, DWORD PTR [edx-24]
	xor	ecx, eax
	call	@__security_check_cookie@4
	mov	eax, OFFSET __ehfuncinfo$?index@ValueIteratorBase@Json@@QBEIXZ
	jmp	___CxxFrameHandler3
text$x	ENDS
?index@ValueIteratorBase@Json@@QBEIXZ ENDP		; Json::ValueIteratorBase::index
PUBLIC	??_C@_00CNPNBAHC@?$AA@				; `string'
PUBLIC	?memberName@ValueIteratorBase@Json@@QBEPBDXZ	; Json::ValueIteratorBase::memberName
;	COMDAT ??_C@_00CNPNBAHC@?$AA@
CONST	SEGMENT
??_C@_00CNPNBAHC@?$AA@ DB 00H				; `string'
; Function compile flags: /Odtp
CONST	ENDS
;	COMDAT ?memberName@ValueIteratorBase@Json@@QBEPBDXZ
_TEXT	SEGMENT
tv69 = -12						; size = 4
_this$ = -8						; size = 4
_name$ = -4						; size = 4
?memberName@ValueIteratorBase@Json@@QBEPBDXZ PROC	; Json::ValueIteratorBase::memberName, COMDAT
; _this$ = ecx

; 198  : {

	push	ebp
	mov	ebp, esp
	sub	esp, 12					; 0000000cH
	mov	DWORD PTR _this$[ebp], ecx

; 199  : #ifndef JSON_VALUE_USE_INTERNAL_MAP
; 200  :    const char *name = (*current_).first.c_str();

	mov	ecx, DWORD PTR _this$[ebp]
	call	??Diterator@?$_Tree@V?$_Tmap_traits@VCZString@Value@Json@@V23@U?$less@VCZString@Value@Json@@@std@@V?$allocator@U?$pair@$$CBVCZString@Value@Json@@V23@@std@@@5@$0A@@std@@@std@@QBEAAU?$pair@$$CBVCZString@Value@Json@@V23@@2@XZ ; std::_Tree<std::_Tmap_traits<Json::Value::CZString,Json::Value,std::less<Json::Value::CZString>,std::allocator<std::pair<Json::Value::CZString const ,Json::Value> >,0> >::iterator::operator*
	mov	ecx, eax
	call	?c_str@CZString@Value@Json@@QBEPBDXZ	; Json::Value::CZString::c_str
	mov	DWORD PTR _name$[ebp], eax

; 201  :    return name ? name : "";

	cmp	DWORD PTR _name$[ebp], 0
	je	SHORT $LN3@memberName
	mov	eax, DWORD PTR _name$[ebp]
	mov	DWORD PTR tv69[ebp], eax
	jmp	SHORT $LN4@memberName
$LN3@memberName:
	mov	DWORD PTR tv69[ebp], OFFSET ??_C@_00CNPNBAHC@?$AA@
$LN4@memberName:
	mov	eax, DWORD PTR tv69[ebp]

; 202  : #else
; 203  :    if ( !isArray_ )
; 204  :       return ValueInternalMap::key( iterator_.map_ );
; 205  :    return "";
; 206  : #endif
; 207  : }

	mov	esp, ebp
	pop	ebp
	ret	0
?memberName@ValueIteratorBase@Json@@QBEPBDXZ ENDP	; Json::ValueIteratorBase::memberName
_TEXT	ENDS
PUBLIC	??0ValueConstIterator@Json@@QAE@XZ		; Json::ValueConstIterator::ValueConstIterator
; Function compile flags: /Odtp
;	COMDAT ??0ValueConstIterator@Json@@QAE@XZ
_TEXT	SEGMENT
_this$ = -4						; size = 4
??0ValueConstIterator@Json@@QAE@XZ PROC			; Json::ValueConstIterator::ValueConstIterator, COMDAT
; _this$ = ecx

; 219  : {

	push	ebp
	mov	ebp, esp
	push	ecx
	mov	DWORD PTR _this$[ebp], ecx
	mov	ecx, DWORD PTR _this$[ebp]
	call	??0ValueIteratorBase@Json@@QAE@XZ	; Json::ValueIteratorBase::ValueIteratorBase

; 220  : }

	mov	eax, DWORD PTR _this$[ebp]
	mov	esp, ebp
	pop	ebp
	ret	0
??0ValueConstIterator@Json@@QAE@XZ ENDP			; Json::ValueConstIterator::ValueConstIterator
_TEXT	ENDS
PUBLIC	??0ValueConstIterator@Json@@AAE@ABViterator@?$_Tree@V?$_Tmap_traits@VCZString@Value@Json@@V23@U?$less@VCZString@Value@Json@@@std@@V?$allocator@U?$pair@$$CBVCZString@Value@Json@@V23@@std@@@5@$0A@@std@@@std@@@Z ; Json::ValueConstIterator::ValueConstIterator
; Function compile flags: /Odtp
;	COMDAT ??0ValueConstIterator@Json@@AAE@ABViterator@?$_Tree@V?$_Tmap_traits@VCZString@Value@Json@@V23@U?$less@VCZString@Value@Json@@@std@@V?$allocator@U?$pair@$$CBVCZString@Value@Json@@V23@@std@@@5@$0A@@std@@@std@@@Z
_TEXT	SEGMENT
_this$ = -4						; size = 4
_current$ = 8						; size = 4
??0ValueConstIterator@Json@@AAE@ABViterator@?$_Tree@V?$_Tmap_traits@VCZString@Value@Json@@V23@U?$less@VCZString@Value@Json@@@std@@V?$allocator@U?$pair@$$CBVCZString@Value@Json@@V23@@std@@@5@$0A@@std@@@std@@@Z PROC ; Json::ValueConstIterator::ValueConstIterator, COMDAT
; _this$ = ecx

; 226  : {

	push	ebp
	mov	ebp, esp
	push	ecx
	mov	DWORD PTR _this$[ebp], ecx
	mov	eax, DWORD PTR _current$[ebp]
	push	eax
	mov	ecx, DWORD PTR _this$[ebp]
	call	??0ValueIteratorBase@Json@@QAE@ABViterator@?$_Tree@V?$_Tmap_traits@VCZString@Value@Json@@V23@U?$less@VCZString@Value@Json@@@std@@V?$allocator@U?$pair@$$CBVCZString@Value@Json@@V23@@std@@@5@$0A@@std@@@std@@@Z ; Json::ValueIteratorBase::ValueIteratorBase

; 227  : }

	mov	eax, DWORD PTR _this$[ebp]
	mov	esp, ebp
	pop	ebp
	ret	4
??0ValueConstIterator@Json@@AAE@ABViterator@?$_Tree@V?$_Tmap_traits@VCZString@Value@Json@@V23@U?$less@VCZString@Value@Json@@@std@@V?$allocator@U?$pair@$$CBVCZString@Value@Json@@V23@@std@@@5@$0A@@std@@@std@@@Z ENDP ; Json::ValueConstIterator::ValueConstIterator
_TEXT	ENDS
PUBLIC	??4ValueConstIterator@Json@@QAEAAV01@ABVValueIteratorBase@1@@Z ; Json::ValueConstIterator::operator=
; Function compile flags: /Odtp
;	COMDAT ??4ValueConstIterator@Json@@QAEAAV01@ABVValueIteratorBase@1@@Z
_TEXT	SEGMENT
_this$ = -4						; size = 4
_other$ = 8						; size = 4
??4ValueConstIterator@Json@@QAEAAV01@ABVValueIteratorBase@1@@Z PROC ; Json::ValueConstIterator::operator=, COMDAT
; _this$ = ecx

; 242  : {

	push	ebp
	mov	ebp, esp
	push	ecx
	mov	DWORD PTR _this$[ebp], ecx

; 243  :    copy( other );

	mov	eax, DWORD PTR _other$[ebp]
	push	eax
	mov	ecx, DWORD PTR _this$[ebp]
	call	?copy@ValueIteratorBase@Json@@IAEXABV12@@Z ; Json::ValueIteratorBase::copy

; 244  :    return *this;

	mov	eax, DWORD PTR _this$[ebp]

; 245  : }

	mov	esp, ebp
	pop	ebp
	ret	4
??4ValueConstIterator@Json@@QAEAAV01@ABVValueIteratorBase@1@@Z ENDP ; Json::ValueConstIterator::operator=
_TEXT	ENDS
PUBLIC	??0ValueIterator@Json@@QAE@XZ			; Json::ValueIterator::ValueIterator
; Function compile flags: /Odtp
;	COMDAT ??0ValueIterator@Json@@QAE@XZ
_TEXT	SEGMENT
_this$ = -4						; size = 4
??0ValueIterator@Json@@QAE@XZ PROC			; Json::ValueIterator::ValueIterator, COMDAT
; _this$ = ecx

; 257  : {

	push	ebp
	mov	ebp, esp
	push	ecx
	mov	DWORD PTR _this$[ebp], ecx
	mov	ecx, DWORD PTR _this$[ebp]
	call	??0ValueIteratorBase@Json@@QAE@XZ	; Json::ValueIteratorBase::ValueIteratorBase

; 258  : }

	mov	eax, DWORD PTR _this$[ebp]
	mov	esp, ebp
	pop	ebp
	ret	0
??0ValueIterator@Json@@QAE@XZ ENDP			; Json::ValueIterator::ValueIterator
_TEXT	ENDS
PUBLIC	??0ValueIterator@Json@@AAE@ABViterator@?$_Tree@V?$_Tmap_traits@VCZString@Value@Json@@V23@U?$less@VCZString@Value@Json@@@std@@V?$allocator@U?$pair@$$CBVCZString@Value@Json@@V23@@std@@@5@$0A@@std@@@std@@@Z ; Json::ValueIterator::ValueIterator
; Function compile flags: /Odtp
;	COMDAT ??0ValueIterator@Json@@AAE@ABViterator@?$_Tree@V?$_Tmap_traits@VCZString@Value@Json@@V23@U?$less@VCZString@Value@Json@@@std@@V?$allocator@U?$pair@$$CBVCZString@Value@Json@@V23@@std@@@5@$0A@@std@@@std@@@Z
_TEXT	SEGMENT
_this$ = -4						; size = 4
_current$ = 8						; size = 4
??0ValueIterator@Json@@AAE@ABViterator@?$_Tree@V?$_Tmap_traits@VCZString@Value@Json@@V23@U?$less@VCZString@Value@Json@@@std@@V?$allocator@U?$pair@$$CBVCZString@Value@Json@@V23@@std@@@5@$0A@@std@@@std@@@Z PROC ; Json::ValueIterator::ValueIterator, COMDAT
; _this$ = ecx

; 264  : {

	push	ebp
	mov	ebp, esp
	push	ecx
	mov	DWORD PTR _this$[ebp], ecx
	mov	eax, DWORD PTR _current$[ebp]
	push	eax
	mov	ecx, DWORD PTR _this$[ebp]
	call	??0ValueIteratorBase@Json@@QAE@ABViterator@?$_Tree@V?$_Tmap_traits@VCZString@Value@Json@@V23@U?$less@VCZString@Value@Json@@@std@@V?$allocator@U?$pair@$$CBVCZString@Value@Json@@V23@@std@@@5@$0A@@std@@@std@@@Z ; Json::ValueIteratorBase::ValueIteratorBase

; 265  : }

	mov	eax, DWORD PTR _this$[ebp]
	mov	esp, ebp
	pop	ebp
	ret	4
??0ValueIterator@Json@@AAE@ABViterator@?$_Tree@V?$_Tmap_traits@VCZString@Value@Json@@V23@U?$less@VCZString@Value@Json@@@std@@V?$allocator@U?$pair@$$CBVCZString@Value@Json@@V23@@std@@@5@$0A@@std@@@std@@@Z ENDP ; Json::ValueIterator::ValueIterator
_TEXT	ENDS
PUBLIC	??0ValueIterator@Json@@QAE@ABVValueConstIterator@1@@Z ; Json::ValueIterator::ValueIterator
; Function compile flags: /Odtp
;	COMDAT ??0ValueIterator@Json@@QAE@ABVValueConstIterator@1@@Z
_TEXT	SEGMENT
_this$ = -4						; size = 4
_other$ = 8						; size = 4
??0ValueIterator@Json@@QAE@ABVValueConstIterator@1@@Z PROC ; Json::ValueIterator::ValueIterator, COMDAT
; _this$ = ecx

; 280  : {

	push	ebp
	mov	ebp, esp
	push	ecx
	mov	DWORD PTR _this$[ebp], ecx
	mov	eax, DWORD PTR _other$[ebp]
	mov	ecx, DWORD PTR _this$[ebp]
	mov	edx, DWORD PTR [eax]
	mov	DWORD PTR [ecx], edx
	mov	edx, DWORD PTR [eax+4]
	mov	DWORD PTR [ecx+4], edx
	mov	eax, DWORD PTR [eax+8]
	mov	DWORD PTR [ecx+8], eax

; 281  : }

	mov	eax, DWORD PTR _this$[ebp]
	mov	esp, ebp
	pop	ebp
	ret	4
??0ValueIterator@Json@@QAE@ABVValueConstIterator@1@@Z ENDP ; Json::ValueIterator::ValueIterator
_TEXT	ENDS
PUBLIC	??0ValueIterator@Json@@QAE@ABV01@@Z		; Json::ValueIterator::ValueIterator
; Function compile flags: /Odtp
;	COMDAT ??0ValueIterator@Json@@QAE@ABV01@@Z
_TEXT	SEGMENT
_this$ = -4						; size = 4
_other$ = 8						; size = 4
??0ValueIterator@Json@@QAE@ABV01@@Z PROC		; Json::ValueIterator::ValueIterator, COMDAT
; _this$ = ecx

; 285  : {

	push	ebp
	mov	ebp, esp
	push	ecx
	mov	DWORD PTR _this$[ebp], ecx
	mov	eax, DWORD PTR _other$[ebp]
	mov	ecx, DWORD PTR _this$[ebp]
	mov	edx, DWORD PTR [eax]
	mov	DWORD PTR [ecx], edx
	mov	edx, DWORD PTR [eax+4]
	mov	DWORD PTR [ecx+4], edx
	mov	eax, DWORD PTR [eax+8]
	mov	DWORD PTR [ecx+8], eax

; 286  : }

	mov	eax, DWORD PTR _this$[ebp]
	mov	esp, ebp
	pop	ebp
	ret	4
??0ValueIterator@Json@@QAE@ABV01@@Z ENDP		; Json::ValueIterator::ValueIterator
_TEXT	ENDS
PUBLIC	??4ValueIterator@Json@@QAEAAV01@ABV01@@Z	; Json::ValueIterator::operator=
; Function compile flags: /Odtp
;	COMDAT ??4ValueIterator@Json@@QAEAAV01@ABV01@@Z
_TEXT	SEGMENT
_this$ = -4						; size = 4
_other$ = 8						; size = 4
??4ValueIterator@Json@@QAEAAV01@ABV01@@Z PROC		; Json::ValueIterator::operator=, COMDAT
; _this$ = ecx

; 290  : {

	push	ebp
	mov	ebp, esp
	push	ecx
	mov	DWORD PTR _this$[ebp], ecx

; 291  :    copy( other );

	mov	eax, DWORD PTR _other$[ebp]
	push	eax
	mov	ecx, DWORD PTR _this$[ebp]
	call	?copy@ValueIteratorBase@Json@@IAEXABV12@@Z ; Json::ValueIteratorBase::copy

; 292  :    return *this;

	mov	eax, DWORD PTR _this$[ebp]

; 293  : }

	mov	esp, ebp
	pop	ebp
	ret	4
??4ValueIterator@Json@@QAEAAV01@ABV01@@Z ENDP		; Json::ValueIterator::operator=
_TEXT	ENDS
PUBLIC	??0CommentInfo@Value@Json@@QAE@XZ		; Json::Value::CommentInfo::CommentInfo
; Function compile flags: /Odtp
; File d:\git_zqprojs\zqproj\generic\cdmifuse\jsoncpp-src-0.5.0\src\lib_json\json_value.cpp
;	COMDAT ??0CommentInfo@Value@Json@@QAE@XZ
_TEXT	SEGMENT
_this$ = -4						; size = 4
??0CommentInfo@Value@Json@@QAE@XZ PROC			; Json::Value::CommentInfo::CommentInfo, COMDAT
; _this$ = ecx

; 144  : {

	push	ebp
	mov	ebp, esp
	push	ecx
	mov	DWORD PTR _this$[ebp], ecx
	mov	eax, DWORD PTR _this$[ebp]
	mov	DWORD PTR [eax], 0

; 145  : }

	mov	eax, DWORD PTR _this$[ebp]
	mov	esp, ebp
	pop	ebp
	ret	0
??0CommentInfo@Value@Json@@QAE@XZ ENDP			; Json::Value::CommentInfo::CommentInfo
_TEXT	ENDS
PUBLIC	??1CommentInfo@Value@Json@@QAE@XZ		; Json::Value::CommentInfo::~CommentInfo
; Function compile flags: /Odtp
;	COMDAT ??1CommentInfo@Value@Json@@QAE@XZ
_TEXT	SEGMENT
tv68 = -8						; size = 4
_this$ = -4						; size = 4
??1CommentInfo@Value@Json@@QAE@XZ PROC			; Json::Value::CommentInfo::~CommentInfo, COMDAT
; _this$ = ecx

; 148  : {

	push	ebp
	mov	ebp, esp
	sub	esp, 8
	mov	DWORD PTR _this$[ebp], ecx

; 149  :    if ( comment_ )

	mov	eax, DWORD PTR _this$[ebp]
	cmp	DWORD PTR [eax], 0
	je	SHORT $LN2@CommentInf

; 150  :       valueAllocator()->releaseStringValue( comment_ );

	call	?valueAllocator@Json@@YAAAPAVValueAllocator@1@XZ ; Json::valueAllocator
	mov	ecx, DWORD PTR [eax]
	mov	DWORD PTR tv68[ebp], ecx
	mov	edx, DWORD PTR _this$[ebp]
	mov	eax, DWORD PTR [edx]
	push	eax
	mov	ecx, DWORD PTR tv68[ebp]
	mov	edx, DWORD PTR [ecx]
	mov	ecx, DWORD PTR tv68[ebp]
	mov	eax, DWORD PTR [edx+16]
	call	eax
$LN2@CommentInf:

; 151  : }

	mov	esp, ebp
	pop	ebp
	ret	0
??1CommentInfo@Value@Json@@QAE@XZ ENDP			; Json::Value::CommentInfo::~CommentInfo
_TEXT	ENDS
PUBLIC	??0DefaultValueAllocator@Json@@QAE@XZ		; Json::DefaultValueAllocator::DefaultValueAllocator
EXTRN	_atexit:PROC
;	COMDAT ?defaultAllocator@?1??valueAllocator@Json@@YAAAPAVValueAllocator@2@XZ@4VDefaultValueAllocator@2@A
_BSS	SEGMENT
?defaultAllocator@?1??valueAllocator@Json@@YAAAPAVValueAllocator@2@XZ@4VDefaultValueAllocator@2@A DD 01H DUP (?) ; `Json::valueAllocator'::`2'::defaultAllocator
_BSS	ENDS
;	COMDAT ?$S1@?1??valueAllocator@Json@@YAAAPAVValueAllocator@2@XZ@4IA
_BSS	SEGMENT
?$S1@?1??valueAllocator@Json@@YAAAPAVValueAllocator@2@XZ@4IA DD 01H DUP (?) ; `Json::valueAllocator'::`2'::$S1
_BSS	ENDS
;	COMDAT ?valueAllocator@?1??0Json@@YAAAPAVValueAllocator@1@XZ@4PAV21@A
_DATA	SEGMENT
?valueAllocator@?1??0Json@@YAAAPAVValueAllocator@1@XZ@4PAV21@A DD FLAT:?defaultAllocator@?1??valueAllocator@Json@@YAAAPAVValueAllocator@2@XZ@4VDefaultValueAllocator@2@A ; `Json::valueAllocator'::`2'::valueAllocator
; Function compile flags: /Odtp
_DATA	ENDS
;	COMDAT ?valueAllocator@Json@@YAAAPAVValueAllocator@1@XZ
_TEXT	SEGMENT
?valueAllocator@Json@@YAAAPAVValueAllocator@1@XZ PROC	; Json::valueAllocator, COMDAT

; 103  : {

	push	ebp
	mov	ebp, esp

; 104  :    static DefaultValueAllocator defaultAllocator;

	mov	eax, DWORD PTR ?$S1@?1??valueAllocator@Json@@YAAAPAVValueAllocator@2@XZ@4IA
	and	eax, 1
	jne	SHORT $LN1@valueAlloc
	mov	ecx, DWORD PTR ?$S1@?1??valueAllocator@Json@@YAAAPAVValueAllocator@2@XZ@4IA
	or	ecx, 1
	mov	DWORD PTR ?$S1@?1??valueAllocator@Json@@YAAAPAVValueAllocator@2@XZ@4IA, ecx
	mov	ecx, OFFSET ?defaultAllocator@?1??valueAllocator@Json@@YAAAPAVValueAllocator@2@XZ@4VDefaultValueAllocator@2@A
	call	??0DefaultValueAllocator@Json@@QAE@XZ
	push	OFFSET ??__FdefaultAllocator@?1??valueAllocator@Json@@YAAAPAVValueAllocator@1@XZ@YAXXZ ; `Json::valueAllocator'::`2'::`dynamic atexit destructor for 'defaultAllocator''
	call	_atexit
	add	esp, 4
$LN1@valueAlloc:

; 105  :    static ValueAllocator *valueAllocator = &defaultAllocator;
; 106  :    return valueAllocator;

	mov	eax, OFFSET ?valueAllocator@?1??0Json@@YAAAPAVValueAllocator@1@XZ@4PAV21@A

; 107  : }

	pop	ebp
	ret	0
?valueAllocator@Json@@YAAAPAVValueAllocator@1@XZ ENDP	; Json::valueAllocator
_TEXT	ENDS
PUBLIC	??_7DefaultValueAllocator@Json@@6B@		; Json::DefaultValueAllocator::`vftable'
PUBLIC	??0ValueAllocator@Json@@QAE@XZ			; Json::ValueAllocator::ValueAllocator
PUBLIC	??_R4DefaultValueAllocator@Json@@6B@		; Json::DefaultValueAllocator::`RTTI Complete Object Locator'
PUBLIC	??_R0?AVDefaultValueAllocator@Json@@@8		; Json::DefaultValueAllocator `RTTI Type Descriptor'
PUBLIC	??_R3DefaultValueAllocator@Json@@8		; Json::DefaultValueAllocator::`RTTI Class Hierarchy Descriptor'
PUBLIC	??_R2DefaultValueAllocator@Json@@8		; Json::DefaultValueAllocator::`RTTI Base Class Array'
PUBLIC	??_R1A@?0A@EA@DefaultValueAllocator@Json@@8	; Json::DefaultValueAllocator::`RTTI Base Class Descriptor at (0,-1,0,64)'
PUBLIC	?makeMemberName@DefaultValueAllocator@Json@@UAEPADPBD@Z ; Json::DefaultValueAllocator::makeMemberName
PUBLIC	?releaseMemberName@DefaultValueAllocator@Json@@UAEXPAD@Z ; Json::DefaultValueAllocator::releaseMemberName
PUBLIC	?duplicateStringValue@DefaultValueAllocator@Json@@UAEPADPBDI@Z ; Json::DefaultValueAllocator::duplicateStringValue
PUBLIC	?releaseStringValue@DefaultValueAllocator@Json@@UAEXPAD@Z ; Json::DefaultValueAllocator::releaseStringValue
EXTRN	??_EDefaultValueAllocator@Json@@UAEPAXI@Z:PROC	; Json::DefaultValueAllocator::`vector deleting destructor'
;	COMDAT ??_R1A@?0A@EA@DefaultValueAllocator@Json@@8
rdata$r	SEGMENT
??_R1A@?0A@EA@DefaultValueAllocator@Json@@8 DD FLAT:??_R0?AVDefaultValueAllocator@Json@@@8 ; Json::DefaultValueAllocator::`RTTI Base Class Descriptor at (0,-1,0,64)'
	DD	01H
	DD	00H
	DD	0ffffffffH
	DD	00H
	DD	040H
	DD	FLAT:??_R3DefaultValueAllocator@Json@@8
rdata$r	ENDS
;	COMDAT ??_R2DefaultValueAllocator@Json@@8
rdata$r	SEGMENT
??_R2DefaultValueAllocator@Json@@8 DD FLAT:??_R1A@?0A@EA@DefaultValueAllocator@Json@@8 ; Json::DefaultValueAllocator::`RTTI Base Class Array'
	DD	FLAT:??_R1A@?0A@EA@ValueAllocator@Json@@8
rdata$r	ENDS
;	COMDAT ??_R3DefaultValueAllocator@Json@@8
rdata$r	SEGMENT
??_R3DefaultValueAllocator@Json@@8 DD 00H		; Json::DefaultValueAllocator::`RTTI Class Hierarchy Descriptor'
	DD	00H
	DD	02H
	DD	FLAT:??_R2DefaultValueAllocator@Json@@8
rdata$r	ENDS
;	COMDAT ??_R0?AVDefaultValueAllocator@Json@@@8
_DATA	SEGMENT
??_R0?AVDefaultValueAllocator@Json@@@8 DD FLAT:??_7type_info@@6B@ ; Json::DefaultValueAllocator `RTTI Type Descriptor'
	DD	00H
	DB	'.?AVDefaultValueAllocator@Json@@', 00H
_DATA	ENDS
;	COMDAT ??_R4DefaultValueAllocator@Json@@6B@
rdata$r	SEGMENT
??_R4DefaultValueAllocator@Json@@6B@ DD 00H		; Json::DefaultValueAllocator::`RTTI Complete Object Locator'
	DD	00H
	DD	00H
	DD	FLAT:??_R0?AVDefaultValueAllocator@Json@@@8
	DD	FLAT:??_R3DefaultValueAllocator@Json@@8
rdata$r	ENDS
;	COMDAT ??_7DefaultValueAllocator@Json@@6B@
CONST	SEGMENT
??_7DefaultValueAllocator@Json@@6B@ DD FLAT:??_R4DefaultValueAllocator@Json@@6B@ ; Json::DefaultValueAllocator::`vftable'
	DD	FLAT:??_EDefaultValueAllocator@Json@@UAEPAXI@Z
	DD	FLAT:?makeMemberName@DefaultValueAllocator@Json@@UAEPADPBD@Z
	DD	FLAT:?releaseMemberName@DefaultValueAllocator@Json@@UAEXPAD@Z
	DD	FLAT:?duplicateStringValue@DefaultValueAllocator@Json@@UAEPADPBDI@Z
	DD	FLAT:?releaseStringValue@DefaultValueAllocator@Json@@UAEXPAD@Z
; Function compile flags: /Odtp
CONST	ENDS
;	COMDAT ??0DefaultValueAllocator@Json@@QAE@XZ
_TEXT	SEGMENT
_this$ = -4						; size = 4
??0DefaultValueAllocator@Json@@QAE@XZ PROC		; Json::DefaultValueAllocator::DefaultValueAllocator, COMDAT
; _this$ = ecx
	push	ebp
	mov	ebp, esp
	push	ecx
	mov	DWORD PTR _this$[ebp], ecx
	mov	ecx, DWORD PTR _this$[ebp]
	call	??0ValueAllocator@Json@@QAE@XZ
	mov	eax, DWORD PTR _this$[ebp]
	mov	DWORD PTR [eax], OFFSET ??_7DefaultValueAllocator@Json@@6B@
	mov	eax, DWORD PTR _this$[ebp]
	mov	esp, ebp
	pop	ebp
	ret	0
??0DefaultValueAllocator@Json@@QAE@XZ ENDP		; Json::DefaultValueAllocator::DefaultValueAllocator
; Function compile flags: /Odtp
_TEXT	ENDS
;	COMDAT ?makeMemberName@DefaultValueAllocator@Json@@UAEPADPBD@Z
_TEXT	SEGMENT
_this$ = -4						; size = 4
_memberName$ = 8					; size = 4
?makeMemberName@DefaultValueAllocator@Json@@UAEPADPBD@Z PROC ; Json::DefaultValueAllocator::makeMemberName, COMDAT
; _this$ = ecx

; 71   :    {

	push	ebp
	mov	ebp, esp
	push	ecx
	mov	DWORD PTR _this$[ebp], ecx

; 72   :       return duplicateStringValue( memberName );

	push	-1
	mov	eax, DWORD PTR _memberName$[ebp]
	push	eax
	mov	ecx, DWORD PTR _this$[ebp]
	mov	edx, DWORD PTR [ecx]
	mov	ecx, DWORD PTR _this$[ebp]
	mov	eax, DWORD PTR [edx+12]
	call	eax

; 73   :    }

	mov	esp, ebp
	pop	ebp
	ret	4
?makeMemberName@DefaultValueAllocator@Json@@UAEPADPBD@Z ENDP ; Json::DefaultValueAllocator::makeMemberName
; Function compile flags: /Odtp
_TEXT	ENDS
;	COMDAT ?releaseMemberName@DefaultValueAllocator@Json@@UAEXPAD@Z
_TEXT	SEGMENT
_this$ = -4						; size = 4
_memberName$ = 8					; size = 4
?releaseMemberName@DefaultValueAllocator@Json@@UAEXPAD@Z PROC ; Json::DefaultValueAllocator::releaseMemberName, COMDAT
; _this$ = ecx

; 76   :    {

	push	ebp
	mov	ebp, esp
	push	ecx
	mov	DWORD PTR _this$[ebp], ecx

; 77   :       releaseStringValue( memberName );

	mov	eax, DWORD PTR _memberName$[ebp]
	push	eax
	mov	ecx, DWORD PTR _this$[ebp]
	mov	edx, DWORD PTR [ecx]
	mov	ecx, DWORD PTR _this$[ebp]
	mov	eax, DWORD PTR [edx+16]
	call	eax

; 78   :    }

	mov	esp, ebp
	pop	ebp
	ret	4
?releaseMemberName@DefaultValueAllocator@Json@@UAEXPAD@Z ENDP ; Json::DefaultValueAllocator::releaseMemberName
_TEXT	ENDS
EXTRN	__imp__malloc:PROC
EXTRN	_memcpy:PROC
; Function compile flags: /Odtp
;	COMDAT ?duplicateStringValue@DefaultValueAllocator@Json@@UAEPADPBDI@Z
_TEXT	SEGMENT
tv66 = -24						; size = 4
tv82 = -17						; size = 1
tv79 = -16						; size = 4
tv76 = -12						; size = 4
_this$ = -8						; size = 4
_newString$ = -4					; size = 4
_value$ = 8						; size = 4
_length$ = 12						; size = 4
?duplicateStringValue@DefaultValueAllocator@Json@@UAEPADPBDI@Z PROC ; Json::DefaultValueAllocator::duplicateStringValue, COMDAT
; _this$ = ecx

; 82   :    {

	push	ebp
	mov	ebp, esp
	sub	esp, 24					; 00000018H
	mov	DWORD PTR _this$[ebp], ecx

; 83   :       //@todo invesgate this old optimization
; 84   :       //if ( !value  ||  value[0] == 0 )
; 85   :       //   return 0;
; 86   : 
; 87   :       if ( length == unknown )

	cmp	DWORD PTR _length$[ebp], -1
	jne	SHORT $LN1@duplicateS

; 88   :          length = (unsigned int)strlen(value);

	mov	eax, DWORD PTR _value$[ebp]
	mov	DWORD PTR tv76[ebp], eax
	mov	ecx, DWORD PTR tv76[ebp]
	add	ecx, 1
	mov	DWORD PTR tv79[ebp], ecx
$LL4@duplicateS:
	mov	edx, DWORD PTR tv76[ebp]
	mov	al, BYTE PTR [edx]
	mov	BYTE PTR tv82[ebp], al
	add	DWORD PTR tv76[ebp], 1
	cmp	BYTE PTR tv82[ebp], 0
	jne	SHORT $LL4@duplicateS
	mov	ecx, DWORD PTR tv76[ebp]
	sub	ecx, DWORD PTR tv79[ebp]
	mov	DWORD PTR tv66[ebp], ecx
	mov	edx, DWORD PTR tv66[ebp]
	mov	DWORD PTR _length$[ebp], edx
$LN1@duplicateS:

; 89   :       char *newString = static_cast<char *>( malloc( length + 1 ) );

	mov	eax, DWORD PTR _length$[ebp]
	add	eax, 1
	push	eax
	call	DWORD PTR __imp__malloc
	add	esp, 4
	mov	DWORD PTR _newString$[ebp], eax

; 90   :       memcpy( newString, value, length );

	mov	ecx, DWORD PTR _length$[ebp]
	push	ecx
	mov	edx, DWORD PTR _value$[ebp]
	push	edx
	mov	eax, DWORD PTR _newString$[ebp]
	push	eax
	call	_memcpy
	add	esp, 12					; 0000000cH

; 91   :       newString[length] = 0;

	mov	ecx, DWORD PTR _newString$[ebp]
	add	ecx, DWORD PTR _length$[ebp]
	mov	BYTE PTR [ecx], 0

; 92   :       return newString;

	mov	eax, DWORD PTR _newString$[ebp]

; 93   :    }

	mov	esp, ebp
	pop	ebp
	ret	8
?duplicateStringValue@DefaultValueAllocator@Json@@UAEPADPBDI@Z ENDP ; Json::DefaultValueAllocator::duplicateStringValue
_TEXT	ENDS
EXTRN	__imp__free:PROC
; Function compile flags: /Odtp
;	COMDAT ?releaseStringValue@DefaultValueAllocator@Json@@UAEXPAD@Z
_TEXT	SEGMENT
_this$ = -4						; size = 4
_value$ = 8						; size = 4
?releaseStringValue@DefaultValueAllocator@Json@@UAEXPAD@Z PROC ; Json::DefaultValueAllocator::releaseStringValue, COMDAT
; _this$ = ecx

; 96   :    {

	push	ebp
	mov	ebp, esp
	push	ecx
	mov	DWORD PTR _this$[ebp], ecx

; 97   :       if ( value )

	cmp	DWORD PTR _value$[ebp], 0
	je	SHORT $LN2@releaseStr

; 98   :          free( value );

	mov	eax, DWORD PTR _value$[ebp]
	push	eax
	call	DWORD PTR __imp__free
	add	esp, 4
$LN2@releaseStr:

; 99   :    }

	mov	esp, ebp
	pop	ebp
	ret	4
?releaseStringValue@DefaultValueAllocator@Json@@UAEXPAD@Z ENDP ; Json::DefaultValueAllocator::releaseStringValue
_TEXT	ENDS
PUBLIC	??1DefaultValueAllocator@Json@@UAE@XZ		; Json::DefaultValueAllocator::~DefaultValueAllocator
; Function compile flags: /Odtp
;	COMDAT ??_GDefaultValueAllocator@Json@@UAEPAXI@Z
_TEXT	SEGMENT
_this$ = -4						; size = 4
___flags$ = 8						; size = 4
??_GDefaultValueAllocator@Json@@UAEPAXI@Z PROC		; Json::DefaultValueAllocator::`scalar deleting destructor', COMDAT
; _this$ = ecx
	push	ebp
	mov	ebp, esp
	push	ecx
	mov	DWORD PTR _this$[ebp], ecx
	mov	ecx, DWORD PTR _this$[ebp]
	call	??1DefaultValueAllocator@Json@@UAE@XZ	; Json::DefaultValueAllocator::~DefaultValueAllocator
	mov	eax, DWORD PTR ___flags$[ebp]
	and	eax, 1
	je	SHORT $LN1@scalar@2
	mov	ecx, DWORD PTR _this$[ebp]
	push	ecx
	call	??3@YAXPAX@Z				; operator delete
	add	esp, 4
$LN1@scalar@2:
	mov	eax, DWORD PTR _this$[ebp]
	mov	esp, ebp
	pop	ebp
	ret	4
??_GDefaultValueAllocator@Json@@UAEPAXI@Z ENDP		; Json::DefaultValueAllocator::`scalar deleting destructor'
; Function compile flags: /Odtp
_TEXT	ENDS
;	COMDAT ??1DefaultValueAllocator@Json@@UAE@XZ
_TEXT	SEGMENT
_this$ = -4						; size = 4
??1DefaultValueAllocator@Json@@UAE@XZ PROC		; Json::DefaultValueAllocator::~DefaultValueAllocator, COMDAT
; _this$ = ecx

; 67   :    {

	push	ebp
	mov	ebp, esp
	push	ecx
	mov	DWORD PTR _this$[ebp], ecx
	mov	eax, DWORD PTR _this$[ebp]
	mov	DWORD PTR [eax], OFFSET ??_7DefaultValueAllocator@Json@@6B@

; 68   :    }

	mov	ecx, DWORD PTR _this$[ebp]
	call	??1ValueAllocator@Json@@UAE@XZ		; Json::ValueAllocator::~ValueAllocator
	mov	esp, ebp
	pop	ebp
	ret	0
??1DefaultValueAllocator@Json@@UAE@XZ ENDP		; Json::DefaultValueAllocator::~DefaultValueAllocator
; Function compile flags: /Odtp
_TEXT	ENDS
;	COMDAT ??0ValueAllocator@Json@@QAE@XZ
_TEXT	SEGMENT
_this$ = -4						; size = 4
??0ValueAllocator@Json@@QAE@XZ PROC			; Json::ValueAllocator::ValueAllocator, COMDAT
; _this$ = ecx
	push	ebp
	mov	ebp, esp
	push	ecx
	mov	DWORD PTR _this$[ebp], ecx
	mov	eax, DWORD PTR _this$[ebp]
	mov	DWORD PTR [eax], OFFSET ??_7ValueAllocator@Json@@6B@
	mov	eax, DWORD PTR _this$[ebp]
	mov	esp, ebp
	pop	ebp
	ret	0
??0ValueAllocator@Json@@QAE@XZ ENDP			; Json::ValueAllocator::ValueAllocator
_TEXT	ENDS
PUBLIC	__TI2?AVruntime_error@std@@
PUBLIC	??0runtime_error@std@@QAE@ABV?$basic_string@DU?$char_traits@D@std@@V?$allocator@D@2@@1@@Z ; std::runtime_error::runtime_error
PUBLIC	??_C@_0BL@DKGNIMPN@Comments?5must?5start?5with?5?1?$AA@ ; `string'
PUBLIC	?setComment@CommentInfo@Value@Json@@QAEXPBD@Z	; Json::Value::CommentInfo::setComment
PUBLIC	??1runtime_error@std@@UAE@XZ			; std::runtime_error::~runtime_error
PUBLIC	__CTA2?AVruntime_error@std@@
PUBLIC	__CT??_R0?AVruntime_error@std@@@8??0runtime_error@std@@QAE@ABV01@@Z40
PUBLIC	??_R0?AVruntime_error@std@@@8			; std::runtime_error `RTTI Type Descriptor'
PUBLIC	??0runtime_error@std@@QAE@ABV01@@Z		; std::runtime_error::runtime_error
PUBLIC	__CT??_R0?AVexception@std@@@8??0exception@std@@QAE@ABV01@@Z12
PUBLIC	??_R0?AVexception@std@@@8			; std::exception `RTTI Type Descriptor'
EXTRN	__imp_??1?$basic_string@DU?$char_traits@D@std@@V?$allocator@D@2@@std@@QAE@XZ:PROC
EXTRN	__imp_??0?$basic_string@DU?$char_traits@D@std@@V?$allocator@D@2@@std@@QAE@PBD@Z:PROC
EXTRN	__CxxThrowException@8:PROC
EXTRN	??0exception@std@@QAE@ABV01@@Z:PROC		; std::exception::exception
;	COMDAT ??_R0?AVexception@std@@@8
_DATA	SEGMENT
??_R0?AVexception@std@@@8 DD FLAT:??_7type_info@@6B@	; std::exception `RTTI Type Descriptor'
	DD	00H
	DB	'.?AVexception@std@@', 00H
_DATA	ENDS
;	COMDAT __CT??_R0?AVexception@std@@@8??0exception@std@@QAE@ABV01@@Z12
xdata$x	SEGMENT
__CT??_R0?AVexception@std@@@8??0exception@std@@QAE@ABV01@@Z12 DD 00H
	DD	FLAT:??_R0?AVexception@std@@@8
	DD	00H
	DD	0ffffffffH
	ORG $+4
	DD	0cH
	DD	FLAT:??0exception@std@@QAE@ABV01@@Z
xdata$x	ENDS
;	COMDAT ??_R0?AVruntime_error@std@@@8
_DATA	SEGMENT
??_R0?AVruntime_error@std@@@8 DD FLAT:??_7type_info@@6B@ ; std::runtime_error `RTTI Type Descriptor'
	DD	00H
	DB	'.?AVruntime_error@std@@', 00H
_DATA	ENDS
;	COMDAT __CT??_R0?AVruntime_error@std@@@8??0runtime_error@std@@QAE@ABV01@@Z40
xdata$x	SEGMENT
__CT??_R0?AVruntime_error@std@@@8??0runtime_error@std@@QAE@ABV01@@Z40 DD 00H
	DD	FLAT:??_R0?AVruntime_error@std@@@8
	DD	00H
	DD	0ffffffffH
	ORG $+4
	DD	028H
	DD	FLAT:??0runtime_error@std@@QAE@ABV01@@Z
xdata$x	ENDS
;	COMDAT __CTA2?AVruntime_error@std@@
xdata$x	SEGMENT
__CTA2?AVruntime_error@std@@ DD 02H
	DD	FLAT:__CT??_R0?AVruntime_error@std@@@8??0runtime_error@std@@QAE@ABV01@@Z40
	DD	FLAT:__CT??_R0?AVexception@std@@@8??0exception@std@@QAE@ABV01@@Z12
xdata$x	ENDS
;	COMDAT __TI2?AVruntime_error@std@@
xdata$x	SEGMENT
__TI2?AVruntime_error@std@@ DD 00H
	DD	FLAT:??1runtime_error@std@@UAE@XZ
	DD	00H
	DD	FLAT:__CTA2?AVruntime_error@std@@
xdata$x	ENDS
;	COMDAT ??_C@_0BL@DKGNIMPN@Comments?5must?5start?5with?5?1?$AA@
CONST	SEGMENT
??_C@_0BL@DKGNIMPN@Comments?5must?5start?5with?5?1?$AA@ DB 'Comments must'
	DB	' start with /', 00H				; `string'
CONST	ENDS
;	COMDAT xdata$x
xdata$x	SEGMENT
__unwindtable$?setComment@CommentInfo@Value@Json@@QAEXPBD@Z DD 0ffffffffH
	DD	FLAT:__unwindfunclet$?setComment@CommentInfo@Value@Json@@QAEXPBD@Z$0
__ehfuncinfo$?setComment@CommentInfo@Value@Json@@QAEXPBD@Z DD 019930522H
	DD	01H
	DD	FLAT:__unwindtable$?setComment@CommentInfo@Value@Json@@QAEXPBD@Z
	DD	2 DUP(00H)
	DD	2 DUP(00H)
	DD	00H
	DD	01H
; Function compile flags: /Odtp
xdata$x	ENDS
;	COMDAT ?setComment@CommentInfo@Value@Json@@QAEXPBD@Z
_TEXT	SEGMENT
tv87 = -92						; size = 4
tv68 = -88						; size = 4
_this$ = -84						; size = 4
$T30998 = -80						; size = 28
$T30997 = -52						; size = 40
__$EHRec$ = -12						; size = 12
_text$ = 8						; size = 4
?setComment@CommentInfo@Value@Json@@QAEXPBD@Z PROC	; Json::Value::CommentInfo::setComment, COMDAT
; _this$ = ecx

; 156  : {

	push	ebp
	mov	ebp, esp
	push	-1
	push	__ehhandler$?setComment@CommentInfo@Value@Json@@QAEXPBD@Z
	mov	eax, DWORD PTR fs:0
	push	eax
	sub	esp, 80					; 00000050H
	mov	eax, DWORD PTR ___security_cookie
	xor	eax, ebp
	push	eax
	lea	eax, DWORD PTR __$EHRec$[ebp]
	mov	DWORD PTR fs:0, eax
	mov	DWORD PTR _this$[ebp], ecx

; 157  :    if ( comment_ )

	mov	eax, DWORD PTR _this$[ebp]
	cmp	DWORD PTR [eax], 0
	je	SHORT $LN2@setComment

; 158  :       valueAllocator()->releaseStringValue( comment_ );

	call	?valueAllocator@Json@@YAAAPAVValueAllocator@1@XZ ; Json::valueAllocator
	mov	ecx, DWORD PTR [eax]
	mov	DWORD PTR tv68[ebp], ecx
	mov	edx, DWORD PTR _this$[ebp]
	mov	eax, DWORD PTR [edx]
	push	eax
	mov	ecx, DWORD PTR tv68[ebp]
	mov	edx, DWORD PTR [ecx]
	mov	ecx, DWORD PTR tv68[ebp]
	mov	eax, DWORD PTR [edx+16]
	call	eax
$LN2@setComment:

; 159  :    JSON_ASSERT( text );
; 160  :    JSON_ASSERT_MESSAGE( text[0]=='\0' || text[0]=='/', "Comments must start with /");

	mov	ecx, DWORD PTR _text$[ebp]
	movsx	edx, BYTE PTR [ecx]
	test	edx, edx
	je	SHORT $LN1@setComment
	mov	eax, DWORD PTR _text$[ebp]
	movsx	ecx, BYTE PTR [eax]
	cmp	ecx, 47					; 0000002fH
	je	SHORT $LN1@setComment
	push	OFFSET ??_C@_0BL@DKGNIMPN@Comments?5must?5start?5with?5?1?$AA@
	lea	ecx, DWORD PTR $T30998[ebp]
	call	DWORD PTR __imp_??0?$basic_string@DU?$char_traits@D@std@@V?$allocator@D@2@@std@@QAE@PBD@Z
	mov	DWORD PTR __$EHRec$[ebp+8], 0
	lea	edx, DWORD PTR $T30998[ebp]
	push	edx
	lea	ecx, DWORD PTR $T30997[ebp]
	call	??0runtime_error@std@@QAE@ABV?$basic_string@DU?$char_traits@D@std@@V?$allocator@D@2@@1@@Z ; std::runtime_error::runtime_error
	push	OFFSET __TI2?AVruntime_error@std@@
	lea	eax, DWORD PTR $T30997[ebp]
	push	eax
	call	__CxxThrowException@8
	mov	DWORD PTR __$EHRec$[ebp+8], -1
	lea	ecx, DWORD PTR $T30998[ebp]
	call	DWORD PTR __imp_??1?$basic_string@DU?$char_traits@D@std@@V?$allocator@D@2@@std@@QAE@XZ
$LN1@setComment:

; 161  :    // It seems that /**/ style comments are acceptable as well.
; 162  :    comment_ = valueAllocator()->duplicateStringValue( text );

	call	?valueAllocator@Json@@YAAAPAVValueAllocator@1@XZ ; Json::valueAllocator
	mov	ecx, DWORD PTR [eax]
	mov	DWORD PTR tv87[ebp], ecx
	push	-1
	mov	edx, DWORD PTR _text$[ebp]
	push	edx
	mov	eax, DWORD PTR tv87[ebp]
	mov	edx, DWORD PTR [eax]
	mov	ecx, DWORD PTR tv87[ebp]
	mov	eax, DWORD PTR [edx+12]
	call	eax
	mov	ecx, DWORD PTR _this$[ebp]
	mov	DWORD PTR [ecx], eax
$LN4@setComment:

; 163  : }

	mov	ecx, DWORD PTR __$EHRec$[ebp]
	mov	DWORD PTR fs:0, ecx
	pop	ecx
	mov	esp, ebp
	pop	ebp
	ret	4
_TEXT	ENDS
;	COMDAT text$x
text$x	SEGMENT
__unwindfunclet$?setComment@CommentInfo@Value@Json@@QAEXPBD@Z$0:
	lea	ecx, DWORD PTR $T30998[ebp]
	jmp	DWORD PTR __imp_??1?$basic_string@DU?$char_traits@D@std@@V?$allocator@D@2@@std@@QAE@XZ
__ehhandler$?setComment@CommentInfo@Value@Json@@QAEXPBD@Z:
	mov	edx, DWORD PTR [esp+8]
	lea	eax, DWORD PTR [edx+12]
	mov	ecx, DWORD PTR [edx-84]
	xor	ecx, eax
	call	@__security_check_cookie@4
	mov	eax, OFFSET __ehfuncinfo$?setComment@CommentInfo@Value@Json@@QAEXPBD@Z
	jmp	___CxxFrameHandler3
text$x	ENDS
?setComment@CommentInfo@Value@Json@@QAEXPBD@Z ENDP	; Json::Value::CommentInfo::setComment
PUBLIC	??_7runtime_error@std@@6B@			; std::runtime_error::`vftable'
PUBLIC	??_R4runtime_error@std@@6B@			; std::runtime_error::`RTTI Complete Object Locator'
PUBLIC	??_R3runtime_error@std@@8			; std::runtime_error::`RTTI Class Hierarchy Descriptor'
PUBLIC	??_R2runtime_error@std@@8			; std::runtime_error::`RTTI Base Class Array'
PUBLIC	??_R1A@?0A@EA@runtime_error@std@@8		; std::runtime_error::`RTTI Base Class Descriptor at (0,-1,0,64)'
PUBLIC	??_R1A@?0A@EA@exception@std@@8			; std::exception::`RTTI Base Class Descriptor at (0,-1,0,64)'
PUBLIC	??_R3exception@std@@8				; std::exception::`RTTI Class Hierarchy Descriptor'
PUBLIC	??_R2exception@std@@8				; std::exception::`RTTI Base Class Array'
PUBLIC	?what@runtime_error@std@@UBEPBDXZ		; std::runtime_error::what
EXTRN	__imp_??1exception@std@@UAE@XZ:PROC
EXTRN	__imp_??0?$basic_string@DU?$char_traits@D@std@@V?$allocator@D@2@@std@@QAE@ABV01@@Z:PROC
EXTRN	__imp_??0exception@std@@QAE@XZ:PROC
EXTRN	??_Eruntime_error@std@@UAEPAXI@Z:PROC		; std::runtime_error::`vector deleting destructor'
;	COMDAT ??_R2exception@std@@8
; File c:\program files (x86)\microsoft visual studio 8\vc\include\stdexcept
rdata$r	SEGMENT
??_R2exception@std@@8 DD FLAT:??_R1A@?0A@EA@exception@std@@8 ; std::exception::`RTTI Base Class Array'
rdata$r	ENDS
;	COMDAT ??_R3exception@std@@8
rdata$r	SEGMENT
??_R3exception@std@@8 DD 00H				; std::exception::`RTTI Class Hierarchy Descriptor'
	DD	00H
	DD	01H
	DD	FLAT:??_R2exception@std@@8
rdata$r	ENDS
;	COMDAT ??_R1A@?0A@EA@exception@std@@8
rdata$r	SEGMENT
??_R1A@?0A@EA@exception@std@@8 DD FLAT:??_R0?AVexception@std@@@8 ; std::exception::`RTTI Base Class Descriptor at (0,-1,0,64)'
	DD	00H
	DD	00H
	DD	0ffffffffH
	DD	00H
	DD	040H
	DD	FLAT:??_R3exception@std@@8
rdata$r	ENDS
;	COMDAT ??_R1A@?0A@EA@runtime_error@std@@8
rdata$r	SEGMENT
??_R1A@?0A@EA@runtime_error@std@@8 DD FLAT:??_R0?AVruntime_error@std@@@8 ; std::runtime_error::`RTTI Base Class Descriptor at (0,-1,0,64)'
	DD	01H
	DD	00H
	DD	0ffffffffH
	DD	00H
	DD	040H
	DD	FLAT:??_R3runtime_error@std@@8
rdata$r	ENDS
;	COMDAT ??_R2runtime_error@std@@8
rdata$r	SEGMENT
??_R2runtime_error@std@@8 DD FLAT:??_R1A@?0A@EA@runtime_error@std@@8 ; std::runtime_error::`RTTI Base Class Array'
	DD	FLAT:??_R1A@?0A@EA@exception@std@@8
rdata$r	ENDS
;	COMDAT ??_R3runtime_error@std@@8
rdata$r	SEGMENT
??_R3runtime_error@std@@8 DD 00H			; std::runtime_error::`RTTI Class Hierarchy Descriptor'
	DD	00H
	DD	02H
	DD	FLAT:??_R2runtime_error@std@@8
rdata$r	ENDS
;	COMDAT ??_R4runtime_error@std@@6B@
rdata$r	SEGMENT
??_R4runtime_error@std@@6B@ DD 00H			; std::runtime_error::`RTTI Complete Object Locator'
	DD	00H
	DD	00H
	DD	FLAT:??_R0?AVruntime_error@std@@@8
	DD	FLAT:??_R3runtime_error@std@@8
rdata$r	ENDS
;	COMDAT ??_7runtime_error@std@@6B@
CONST	SEGMENT
??_7runtime_error@std@@6B@ DD FLAT:??_R4runtime_error@std@@6B@ ; std::runtime_error::`vftable'
	DD	FLAT:??_Eruntime_error@std@@UAEPAXI@Z
	DD	FLAT:?what@runtime_error@std@@UBEPBDXZ
CONST	ENDS
;	COMDAT xdata$x
xdata$x	SEGMENT
__unwindtable$??0runtime_error@std@@QAE@ABV?$basic_string@DU?$char_traits@D@std@@V?$allocator@D@2@@1@@Z DD 0ffffffffH
	DD	FLAT:__unwindfunclet$??0runtime_error@std@@QAE@ABV?$basic_string@DU?$char_traits@D@std@@V?$allocator@D@2@@1@@Z$0
__ehfuncinfo$??0runtime_error@std@@QAE@ABV?$basic_string@DU?$char_traits@D@std@@V?$allocator@D@2@@1@@Z DD 019930522H
	DD	01H
	DD	FLAT:__unwindtable$??0runtime_error@std@@QAE@ABV?$basic_string@DU?$char_traits@D@std@@V?$allocator@D@2@@1@@Z
	DD	2 DUP(00H)
	DD	2 DUP(00H)
	DD	00H
	DD	01H
; Function compile flags: /Odtp
xdata$x	ENDS
;	COMDAT ??0runtime_error@std@@QAE@ABV?$basic_string@DU?$char_traits@D@std@@V?$allocator@D@2@@1@@Z
_TEXT	SEGMENT
_this$ = -16						; size = 4
__$EHRec$ = -12						; size = 12
__Message$ = 8						; size = 4
??0runtime_error@std@@QAE@ABV?$basic_string@DU?$char_traits@D@std@@V?$allocator@D@2@@1@@Z PROC ; std::runtime_error::runtime_error, COMDAT
; _this$ = ecx

; 154  : 		{	// construct from message string

	push	ebp
	mov	ebp, esp
	push	-1
	push	__ehhandler$??0runtime_error@std@@QAE@ABV?$basic_string@DU?$char_traits@D@std@@V?$allocator@D@2@@1@@Z
	mov	eax, DWORD PTR fs:0
	push	eax
	push	ecx
	mov	eax, DWORD PTR ___security_cookie
	xor	eax, ebp
	push	eax
	lea	eax, DWORD PTR __$EHRec$[ebp]
	mov	DWORD PTR fs:0, eax
	mov	DWORD PTR _this$[ebp], ecx
	mov	ecx, DWORD PTR _this$[ebp]
	call	DWORD PTR __imp_??0exception@std@@QAE@XZ
	mov	DWORD PTR __$EHRec$[ebp+8], 0
	mov	eax, DWORD PTR _this$[ebp]
	mov	DWORD PTR [eax], OFFSET ??_7runtime_error@std@@6B@
	mov	ecx, DWORD PTR __Message$[ebp]
	push	ecx
	mov	ecx, DWORD PTR _this$[ebp]
	add	ecx, 12					; 0000000cH
	call	DWORD PTR __imp_??0?$basic_string@DU?$char_traits@D@std@@V?$allocator@D@2@@std@@QAE@ABV01@@Z

; 155  : 		}

	mov	DWORD PTR __$EHRec$[ebp+8], -1
	mov	eax, DWORD PTR _this$[ebp]
	mov	ecx, DWORD PTR __$EHRec$[ebp]
	mov	DWORD PTR fs:0, ecx
	pop	ecx
	mov	esp, ebp
	pop	ebp
	ret	4
_TEXT	ENDS
;	COMDAT text$x
text$x	SEGMENT
__unwindfunclet$??0runtime_error@std@@QAE@ABV?$basic_string@DU?$char_traits@D@std@@V?$allocator@D@2@@1@@Z$0:
	mov	ecx, DWORD PTR _this$[ebp]
	jmp	DWORD PTR __imp_??1exception@std@@UAE@XZ
__ehhandler$??0runtime_error@std@@QAE@ABV?$basic_string@DU?$char_traits@D@std@@V?$allocator@D@2@@1@@Z:
	mov	edx, DWORD PTR [esp+8]
	lea	eax, DWORD PTR [edx+12]
	mov	ecx, DWORD PTR [edx-8]
	xor	ecx, eax
	call	@__security_check_cookie@4
	mov	eax, OFFSET __ehfuncinfo$??0runtime_error@std@@QAE@ABV?$basic_string@DU?$char_traits@D@std@@V?$allocator@D@2@@1@@Z
	jmp	___CxxFrameHandler3
text$x	ENDS
??0runtime_error@std@@QAE@ABV?$basic_string@DU?$char_traits@D@std@@V?$allocator@D@2@@1@@Z ENDP ; std::runtime_error::runtime_error
; Function compile flags: /Odtp
;	COMDAT ??1runtime_error@std@@UAE@XZ
_TEXT	SEGMENT
_this$ = -4						; size = 4
??1runtime_error@std@@UAE@XZ PROC			; std::runtime_error::~runtime_error, COMDAT
; _this$ = ecx

; 158  : 		{	// destroy the object

	push	ebp
	mov	ebp, esp
	push	ecx
	mov	DWORD PTR _this$[ebp], ecx
	mov	eax, DWORD PTR _this$[ebp]
	mov	DWORD PTR [eax], OFFSET ??_7runtime_error@std@@6B@

; 159  : 		}

	mov	ecx, DWORD PTR _this$[ebp]
	add	ecx, 12					; 0000000cH
	call	DWORD PTR __imp_??1?$basic_string@DU?$char_traits@D@std@@V?$allocator@D@2@@std@@QAE@XZ
	mov	ecx, DWORD PTR _this$[ebp]
	call	DWORD PTR __imp_??1exception@std@@UAE@XZ
	mov	esp, ebp
	pop	ebp
	ret	0
??1runtime_error@std@@UAE@XZ ENDP			; std::runtime_error::~runtime_error
_TEXT	ENDS
EXTRN	__imp_?c_str@?$basic_string@DU?$char_traits@D@std@@V?$allocator@D@2@@std@@QBEPBDXZ:PROC
; Function compile flags: /Odtp
;	COMDAT ?what@runtime_error@std@@UBEPBDXZ
_TEXT	SEGMENT
_this$ = -4						; size = 4
?what@runtime_error@std@@UBEPBDXZ PROC			; std::runtime_error::what, COMDAT
; _this$ = ecx

; 162  : 		{	// return pointer to message string

	push	ebp
	mov	ebp, esp
	push	ecx
	mov	DWORD PTR _this$[ebp], ecx

; 163  : 		return (_Str.c_str());

	mov	ecx, DWORD PTR _this$[ebp]
	add	ecx, 12					; 0000000cH
	call	DWORD PTR __imp_?c_str@?$basic_string@DU?$char_traits@D@std@@V?$allocator@D@2@@std@@QBEPBDXZ

; 164  : 		}

	mov	esp, ebp
	pop	ebp
	ret	0
?what@runtime_error@std@@UBEPBDXZ ENDP			; std::runtime_error::what
; Function compile flags: /Odtp
_TEXT	ENDS
;	COMDAT ??_Gruntime_error@std@@UAEPAXI@Z
_TEXT	SEGMENT
_this$ = -4						; size = 4
___flags$ = 8						; size = 4
??_Gruntime_error@std@@UAEPAXI@Z PROC			; std::runtime_error::`scalar deleting destructor', COMDAT
; _this$ = ecx
	push	ebp
	mov	ebp, esp
	push	ecx
	mov	DWORD PTR _this$[ebp], ecx
	mov	ecx, DWORD PTR _this$[ebp]
	call	??1runtime_error@std@@UAE@XZ		; std::runtime_error::~runtime_error
	mov	eax, DWORD PTR ___flags$[ebp]
	and	eax, 1
	je	SHORT $LN1@scalar@3
	mov	ecx, DWORD PTR _this$[ebp]
	push	ecx
	call	??3@YAXPAX@Z				; operator delete
	add	esp, 4
$LN1@scalar@3:
	mov	eax, DWORD PTR _this$[ebp]
	mov	esp, ebp
	pop	ebp
	ret	4
??_Gruntime_error@std@@UAEPAXI@Z ENDP			; std::runtime_error::`scalar deleting destructor'
_TEXT	ENDS
EXTRN	__imp_??0exception@std@@QAE@ABV01@@Z:PROC
;	COMDAT xdata$x
xdata$x	SEGMENT
__unwindtable$??0runtime_error@std@@QAE@ABV01@@Z DD 0ffffffffH
	DD	FLAT:__unwindfunclet$??0runtime_error@std@@QAE@ABV01@@Z$0
__ehfuncinfo$??0runtime_error@std@@QAE@ABV01@@Z DD 019930522H
	DD	01H
	DD	FLAT:__unwindtable$??0runtime_error@std@@QAE@ABV01@@Z
	DD	2 DUP(00H)
	DD	2 DUP(00H)
	DD	00H
	DD	01H
; Function compile flags: /Odtp
xdata$x	ENDS
;	COMDAT ??0runtime_error@std@@QAE@ABV01@@Z
_TEXT	SEGMENT
_this$ = -16						; size = 4
__$EHRec$ = -12						; size = 12
___that$ = 8						; size = 4
??0runtime_error@std@@QAE@ABV01@@Z PROC			; std::runtime_error::runtime_error, COMDAT
; _this$ = ecx
	push	ebp
	mov	ebp, esp
	push	-1
	push	__ehhandler$??0runtime_error@std@@QAE@ABV01@@Z
	mov	eax, DWORD PTR fs:0
	push	eax
	push	ecx
	mov	eax, DWORD PTR ___security_cookie
	xor	eax, ebp
	push	eax
	lea	eax, DWORD PTR __$EHRec$[ebp]
	mov	DWORD PTR fs:0, eax
	mov	DWORD PTR _this$[ebp], ecx
	mov	eax, DWORD PTR ___that$[ebp]
	push	eax
	mov	ecx, DWORD PTR _this$[ebp]
	call	DWORD PTR __imp_??0exception@std@@QAE@ABV01@@Z
	mov	DWORD PTR __$EHRec$[ebp+8], 0
	mov	ecx, DWORD PTR _this$[ebp]
	mov	DWORD PTR [ecx], OFFSET ??_7runtime_error@std@@6B@
	mov	edx, DWORD PTR ___that$[ebp]
	add	edx, 12					; 0000000cH
	push	edx
	mov	ecx, DWORD PTR _this$[ebp]
	add	ecx, 12					; 0000000cH
	call	DWORD PTR __imp_??0?$basic_string@DU?$char_traits@D@std@@V?$allocator@D@2@@std@@QAE@ABV01@@Z
	mov	DWORD PTR __$EHRec$[ebp+8], -1
	mov	eax, DWORD PTR _this$[ebp]
	mov	ecx, DWORD PTR __$EHRec$[ebp]
	mov	DWORD PTR fs:0, ecx
	pop	ecx
	mov	esp, ebp
	pop	ebp
	ret	4
_TEXT	ENDS
;	COMDAT text$x
text$x	SEGMENT
__unwindfunclet$??0runtime_error@std@@QAE@ABV01@@Z$0:
	mov	ecx, DWORD PTR _this$[ebp]
	jmp	DWORD PTR __imp_??1exception@std@@UAE@XZ
__ehhandler$??0runtime_error@std@@QAE@ABV01@@Z:
	mov	edx, DWORD PTR [esp+8]
	lea	eax, DWORD PTR [edx+12]
	mov	ecx, DWORD PTR [edx-8]
	xor	ecx, eax
	call	@__security_check_cookie@4
	mov	eax, OFFSET __ehfuncinfo$??0runtime_error@std@@QAE@ABV01@@Z
	jmp	___CxxFrameHandler3
text$x	ENDS
??0runtime_error@std@@QAE@ABV01@@Z ENDP			; std::runtime_error::runtime_error
PUBLIC	??0CZString@Value@Json@@QAE@H@Z			; Json::Value::CZString::CZString
; Function compile flags: /Odtp
; File d:\git_zqprojs\zqproj\generic\cdmifuse\jsoncpp-src-0.5.0\src\lib_json\json_value.cpp
;	COMDAT ??0CZString@Value@Json@@QAE@H@Z
_TEXT	SEGMENT
_this$ = -4						; size = 4
_index$ = 8						; size = 4
??0CZString@Value@Json@@QAE@H@Z PROC			; Json::Value::CZString::CZString, COMDAT
; _this$ = ecx

; 181  : {

	push	ebp
	mov	ebp, esp
	push	ecx
	mov	DWORD PTR _this$[ebp], ecx
	mov	eax, DWORD PTR _this$[ebp]
	mov	DWORD PTR [eax], 0
	mov	ecx, DWORD PTR _this$[ebp]
	mov	edx, DWORD PTR _index$[ebp]
	mov	DWORD PTR [ecx+4], edx

; 182  : }

	mov	eax, DWORD PTR _this$[ebp]
	mov	esp, ebp
	pop	ebp
	ret	4
??0CZString@Value@Json@@QAE@H@Z ENDP			; Json::Value::CZString::CZString
_TEXT	ENDS
PUBLIC	??0CZString@Value@Json@@QAE@PBDW4DuplicationPolicy@012@@Z ; Json::Value::CZString::CZString
; Function compile flags: /Odtp
;	COMDAT ??0CZString@Value@Json@@QAE@PBDW4DuplicationPolicy@012@@Z
_TEXT	SEGMENT
tv73 = -12						; size = 4
tv68 = -8						; size = 4
_this$ = -4						; size = 4
_cstr$ = 8						; size = 4
_allocate$ = 12						; size = 4
??0CZString@Value@Json@@QAE@PBDW4DuplicationPolicy@012@@Z PROC ; Json::Value::CZString::CZString, COMDAT
; _this$ = ecx

; 188  : {

	push	ebp
	mov	ebp, esp
	sub	esp, 12					; 0000000cH
	mov	DWORD PTR _this$[ebp], ecx
	cmp	DWORD PTR _allocate$[ebp], 1
	jne	SHORT $LN3@CZString
	call	?valueAllocator@Json@@YAAAPAVValueAllocator@1@XZ ; Json::valueAllocator
	mov	eax, DWORD PTR [eax]
	mov	DWORD PTR tv68[ebp], eax
	mov	ecx, DWORD PTR _cstr$[ebp]
	push	ecx
	mov	edx, DWORD PTR tv68[ebp]
	mov	eax, DWORD PTR [edx]
	mov	ecx, DWORD PTR tv68[ebp]
	mov	edx, DWORD PTR [eax+4]
	call	edx
	mov	DWORD PTR tv73[ebp], eax
	jmp	SHORT $LN4@CZString
$LN3@CZString:
	mov	eax, DWORD PTR _cstr$[ebp]
	mov	DWORD PTR tv73[ebp], eax
$LN4@CZString:
	mov	ecx, DWORD PTR _this$[ebp]
	mov	edx, DWORD PTR tv73[ebp]
	mov	DWORD PTR [ecx], edx
	mov	eax, DWORD PTR _this$[ebp]
	mov	ecx, DWORD PTR _allocate$[ebp]
	mov	DWORD PTR [eax+4], ecx

; 189  : }

	mov	eax, DWORD PTR _this$[ebp]
	mov	esp, ebp
	pop	ebp
	ret	8
??0CZString@Value@Json@@QAE@PBDW4DuplicationPolicy@012@@Z ENDP ; Json::Value::CZString::CZString
; Function compile flags: /Odtp
_TEXT	ENDS
;	COMDAT ??0CZString@Value@Json@@QAE@ABV012@@Z
_TEXT	SEGMENT
tv82 = -16						; size = 4
tv75 = -12						; size = 4
tv70 = -8						; size = 4
_this$ = -4						; size = 4
_other$ = 8						; size = 4
??0CZString@Value@Json@@QAE@ABV012@@Z PROC		; Json::Value::CZString::CZString, COMDAT
; _this$ = ecx

; 197  : {

	push	ebp
	mov	ebp, esp
	sub	esp, 16					; 00000010H
	mov	DWORD PTR _this$[ebp], ecx
	mov	eax, DWORD PTR _other$[ebp]
	cmp	DWORD PTR [eax+4], 0
	je	SHORT $LN3@CZString@2
	mov	ecx, DWORD PTR _other$[ebp]
	cmp	DWORD PTR [ecx], 0
	je	SHORT $LN3@CZString@2
	call	?valueAllocator@Json@@YAAAPAVValueAllocator@1@XZ ; Json::valueAllocator
	mov	edx, DWORD PTR [eax]
	mov	DWORD PTR tv70[ebp], edx
	mov	eax, DWORD PTR _other$[ebp]
	mov	ecx, DWORD PTR [eax]
	push	ecx
	mov	edx, DWORD PTR tv70[ebp]
	mov	eax, DWORD PTR [edx]
	mov	ecx, DWORD PTR tv70[ebp]
	mov	edx, DWORD PTR [eax+4]
	call	edx
	mov	DWORD PTR tv75[ebp], eax
	jmp	SHORT $LN4@CZString@2
$LN3@CZString@2:
	mov	eax, DWORD PTR _other$[ebp]
	mov	ecx, DWORD PTR [eax]
	mov	DWORD PTR tv75[ebp], ecx
$LN4@CZString@2:
	mov	edx, DWORD PTR _this$[ebp]
	mov	eax, DWORD PTR tv75[ebp]
	mov	DWORD PTR [edx], eax
	mov	ecx, DWORD PTR _other$[ebp]
	cmp	DWORD PTR [ecx], 0
	je	SHORT $LN5@CZString@2
	mov	edx, DWORD PTR _other$[ebp]
	xor	eax, eax
	cmp	DWORD PTR [edx+4], 0
	setne	al
	mov	DWORD PTR tv82[ebp], eax
	jmp	SHORT $LN6@CZString@2
$LN5@CZString@2:
	mov	ecx, DWORD PTR _other$[ebp]
	mov	edx, DWORD PTR [ecx+4]
	mov	DWORD PTR tv82[ebp], edx
$LN6@CZString@2:
	mov	eax, DWORD PTR _this$[ebp]
	mov	ecx, DWORD PTR tv82[ebp]
	mov	DWORD PTR [eax+4], ecx

; 198  : }

	mov	eax, DWORD PTR _this$[ebp]
	mov	esp, ebp
	pop	ebp
	ret	4
??0CZString@Value@Json@@QAE@ABV012@@Z ENDP		; Json::Value::CZString::CZString
; Function compile flags: /Odtp
_TEXT	ENDS
;	COMDAT ??1CZString@Value@Json@@QAE@XZ
_TEXT	SEGMENT
tv70 = -8						; size = 4
_this$ = -4						; size = 4
??1CZString@Value@Json@@QAE@XZ PROC			; Json::Value::CZString::~CZString, COMDAT
; _this$ = ecx

; 201  : {

	push	ebp
	mov	ebp, esp
	sub	esp, 8
	mov	DWORD PTR _this$[ebp], ecx

; 202  :    if ( cstr_  &&  index_ == duplicate )

	mov	eax, DWORD PTR _this$[ebp]
	cmp	DWORD PTR [eax], 0
	je	SHORT $LN2@CZString@3
	mov	ecx, DWORD PTR _this$[ebp]
	cmp	DWORD PTR [ecx+4], 1
	jne	SHORT $LN2@CZString@3

; 203  :       valueAllocator()->releaseMemberName( const_cast<char *>( cstr_ ) );

	call	?valueAllocator@Json@@YAAAPAVValueAllocator@1@XZ ; Json::valueAllocator
	mov	edx, DWORD PTR [eax]
	mov	DWORD PTR tv70[ebp], edx
	mov	eax, DWORD PTR _this$[ebp]
	mov	ecx, DWORD PTR [eax]
	push	ecx
	mov	edx, DWORD PTR tv70[ebp]
	mov	eax, DWORD PTR [edx]
	mov	ecx, DWORD PTR tv70[ebp]
	mov	edx, DWORD PTR [eax+8]
	call	edx
$LN2@CZString@3:

; 204  : }

	mov	esp, ebp
	pop	ebp
	ret	0
??1CZString@Value@Json@@QAE@XZ ENDP			; Json::Value::CZString::~CZString
_TEXT	ENDS
PUBLIC	??$swap@H@std@@YAXAAH0@Z			; std::swap<int>
PUBLIC	??$swap@PBD@std@@YAXAAPBD0@Z			; std::swap<char const *>
PUBLIC	?swap@CZString@Value@Json@@AAEXAAV123@@Z	; Json::Value::CZString::swap
; Function compile flags: /Odtp
;	COMDAT ?swap@CZString@Value@Json@@AAEXAAV123@@Z
_TEXT	SEGMENT
_this$ = -4						; size = 4
_other$ = 8						; size = 4
?swap@CZString@Value@Json@@AAEXAAV123@@Z PROC		; Json::Value::CZString::swap, COMDAT
; _this$ = ecx

; 208  : {

	push	ebp
	mov	ebp, esp
	push	ecx
	mov	DWORD PTR _this$[ebp], ecx

; 209  :    std::swap( cstr_, other.cstr_ );

	mov	eax, DWORD PTR _other$[ebp]
	push	eax
	mov	ecx, DWORD PTR _this$[ebp]
	push	ecx
	call	??$swap@PBD@std@@YAXAAPBD0@Z		; std::swap<char const *>
	add	esp, 8

; 210  :    std::swap( index_, other.index_ );

	mov	edx, DWORD PTR _other$[ebp]
	add	edx, 4
	push	edx
	mov	eax, DWORD PTR _this$[ebp]
	add	eax, 4
	push	eax
	call	??$swap@H@std@@YAXAAH0@Z		; std::swap<int>
	add	esp, 8

; 211  : }

	mov	esp, ebp
	pop	ebp
	ret	4
?swap@CZString@Value@Json@@AAEXAAV123@@Z ENDP		; Json::Value::CZString::swap
_TEXT	ENDS
PUBLIC	??4CZString@Value@Json@@QAEAAV012@ABV012@@Z	; Json::Value::CZString::operator=
;	COMDAT xdata$x
xdata$x	SEGMENT
__unwindtable$??4CZString@Value@Json@@QAEAAV012@ABV012@@Z DD 0ffffffffH
	DD	FLAT:__unwindfunclet$??4CZString@Value@Json@@QAEAAV012@ABV012@@Z$0
__ehfuncinfo$??4CZString@Value@Json@@QAEAAV012@ABV012@@Z DD 019930522H
	DD	01H
	DD	FLAT:__unwindtable$??4CZString@Value@Json@@QAEAAV012@ABV012@@Z
	DD	2 DUP(00H)
	DD	2 DUP(00H)
	DD	00H
	DD	01H
; Function compile flags: /Odtp
xdata$x	ENDS
;	COMDAT ??4CZString@Value@Json@@QAEAAV012@ABV012@@Z
_TEXT	SEGMENT
_this$ = -28						; size = 4
$T31051 = -24						; size = 4
_temp$ = -20						; size = 8
__$EHRec$ = -12						; size = 12
_other$ = 8						; size = 4
??4CZString@Value@Json@@QAEAAV012@ABV012@@Z PROC	; Json::Value::CZString::operator=, COMDAT
; _this$ = ecx

; 215  : {

	push	ebp
	mov	ebp, esp
	push	-1
	push	__ehhandler$??4CZString@Value@Json@@QAEAAV012@ABV012@@Z
	mov	eax, DWORD PTR fs:0
	push	eax
	sub	esp, 16					; 00000010H
	mov	eax, DWORD PTR ___security_cookie
	xor	eax, ebp
	push	eax
	lea	eax, DWORD PTR __$EHRec$[ebp]
	mov	DWORD PTR fs:0, eax
	mov	DWORD PTR _this$[ebp], ecx

; 216  :    CZString temp( other );

	mov	eax, DWORD PTR _other$[ebp]
	push	eax
	lea	ecx, DWORD PTR _temp$[ebp]
	call	??0CZString@Value@Json@@QAE@ABV012@@Z	; Json::Value::CZString::CZString
	mov	DWORD PTR __$EHRec$[ebp+8], 0

; 217  :    swap( temp );

	lea	ecx, DWORD PTR _temp$[ebp]
	push	ecx
	mov	ecx, DWORD PTR _this$[ebp]
	call	?swap@CZString@Value@Json@@AAEXAAV123@@Z ; Json::Value::CZString::swap

; 218  :    return *this;

	mov	edx, DWORD PTR _this$[ebp]
	mov	DWORD PTR $T31051[ebp], edx
	mov	DWORD PTR __$EHRec$[ebp+8], -1
	lea	ecx, DWORD PTR _temp$[ebp]
	call	??1CZString@Value@Json@@QAE@XZ		; Json::Value::CZString::~CZString
	mov	eax, DWORD PTR $T31051[ebp]

; 219  : }

	mov	ecx, DWORD PTR __$EHRec$[ebp]
	mov	DWORD PTR fs:0, ecx
	pop	ecx
	mov	esp, ebp
	pop	ebp
	ret	4
_TEXT	ENDS
;	COMDAT text$x
text$x	SEGMENT
__unwindfunclet$??4CZString@Value@Json@@QAEAAV012@ABV012@@Z$0:
	lea	ecx, DWORD PTR _temp$[ebp]
	jmp	??1CZString@Value@Json@@QAE@XZ		; Json::Value::CZString::~CZString
__ehhandler$??4CZString@Value@Json@@QAEAAV012@ABV012@@Z:
	mov	edx, DWORD PTR [esp+8]
	lea	eax, DWORD PTR [edx+12]
	mov	ecx, DWORD PTR [edx-20]
	xor	ecx, eax
	call	@__security_check_cookie@4
	mov	eax, OFFSET __ehfuncinfo$??4CZString@Value@Json@@QAEAAV012@ABV012@@Z
	jmp	___CxxFrameHandler3
text$x	ENDS
??4CZString@Value@Json@@QAEAAV012@ABV012@@Z ENDP	; Json::Value::CZString::operator=
PUBLIC	??MCZString@Value@Json@@QBE_NABV012@@Z		; Json::Value::CZString::operator<
; Function compile flags: /Odtp
;	COMDAT ??MCZString@Value@Json@@QBE_NABV012@@Z
_TEXT	SEGMENT
tv66 = -24						; size = 4
tv130 = -20						; size = 4
tv93 = -14						; size = 1
tv86 = -13						; size = 1
tv80 = -12						; size = 4
tv82 = -8						; size = 4
_this$ = -4						; size = 4
_other$ = 8						; size = 4
??MCZString@Value@Json@@QBE_NABV012@@Z PROC		; Json::Value::CZString::operator<, COMDAT
; _this$ = ecx

; 223  : {

	push	ebp
	mov	ebp, esp
	sub	esp, 24					; 00000018H
	mov	DWORD PTR _this$[ebp], ecx

; 224  :    if ( cstr_ )

	mov	eax, DWORD PTR _this$[ebp]
	cmp	DWORD PTR [eax], 0
	je	SHORT $LN1@operator

; 225  :       return strcmp( cstr_, other.cstr_ ) < 0;

	mov	ecx, DWORD PTR _other$[ebp]
	mov	edx, DWORD PTR [ecx]
	mov	DWORD PTR tv82[ebp], edx
	mov	eax, DWORD PTR _this$[ebp]
	mov	ecx, DWORD PTR [eax]
	mov	DWORD PTR tv80[ebp], ecx
$LL4@operator:
	mov	edx, DWORD PTR tv80[ebp]
	mov	al, BYTE PTR [edx]
	mov	BYTE PTR tv86[ebp], al
	mov	ecx, DWORD PTR tv82[ebp]
	cmp	al, BYTE PTR [ecx]
	jne	SHORT $LN5@operator
	cmp	BYTE PTR tv86[ebp], 0
	je	SHORT $LN6@operator
	mov	edx, DWORD PTR tv80[ebp]
	mov	al, BYTE PTR [edx+1]
	mov	BYTE PTR tv93[ebp], al
	mov	ecx, DWORD PTR tv82[ebp]
	cmp	al, BYTE PTR [ecx+1]
	jne	SHORT $LN5@operator
	add	DWORD PTR tv80[ebp], 2
	add	DWORD PTR tv82[ebp], 2
	cmp	BYTE PTR tv93[ebp], 0
	jne	SHORT $LL4@operator
$LN6@operator:
	mov	DWORD PTR tv130[ebp], 0
	jmp	SHORT $LN7@operator
$LN5@operator:
	sbb	edx, edx
	sbb	edx, -1
	mov	DWORD PTR tv130[ebp], edx
$LN7@operator:
	mov	eax, DWORD PTR tv130[ebp]
	mov	DWORD PTR tv66[ebp], eax
	xor	eax, eax
	cmp	DWORD PTR tv66[ebp], 0
	setl	al
	jmp	SHORT $LN2@operator
$LN1@operator:

; 226  :    return index_ < other.index_;

	mov	ecx, DWORD PTR _this$[ebp]
	mov	edx, DWORD PTR _other$[ebp]
	mov	eax, DWORD PTR [ecx+4]
	xor	ecx, ecx
	cmp	eax, DWORD PTR [edx+4]
	setl	cl
	mov	al, cl
$LN2@operator:

; 227  : }

	mov	esp, ebp
	pop	ebp
	ret	4
??MCZString@Value@Json@@QBE_NABV012@@Z ENDP		; Json::Value::CZString::operator<
_TEXT	ENDS
PUBLIC	??8CZString@Value@Json@@QBE_NABV012@@Z		; Json::Value::CZString::operator==
; Function compile flags: /Odtp
;	COMDAT ??8CZString@Value@Json@@QBE_NABV012@@Z
_TEXT	SEGMENT
tv66 = -24						; size = 4
tv130 = -20						; size = 4
tv93 = -14						; size = 1
tv86 = -13						; size = 1
tv80 = -12						; size = 4
tv82 = -8						; size = 4
_this$ = -4						; size = 4
_other$ = 8						; size = 4
??8CZString@Value@Json@@QBE_NABV012@@Z PROC		; Json::Value::CZString::operator==, COMDAT
; _this$ = ecx

; 231  : {

	push	ebp
	mov	ebp, esp
	sub	esp, 24					; 00000018H
	mov	DWORD PTR _this$[ebp], ecx

; 232  :    if ( cstr_ )

	mov	eax, DWORD PTR _this$[ebp]
	cmp	DWORD PTR [eax], 0
	je	SHORT $LN1@operator@2

; 233  :       return strcmp( cstr_, other.cstr_ ) == 0;

	mov	ecx, DWORD PTR _other$[ebp]
	mov	edx, DWORD PTR [ecx]
	mov	DWORD PTR tv82[ebp], edx
	mov	eax, DWORD PTR _this$[ebp]
	mov	ecx, DWORD PTR [eax]
	mov	DWORD PTR tv80[ebp], ecx
$LL4@operator@2:
	mov	edx, DWORD PTR tv80[ebp]
	mov	al, BYTE PTR [edx]
	mov	BYTE PTR tv86[ebp], al
	mov	ecx, DWORD PTR tv82[ebp]
	cmp	al, BYTE PTR [ecx]
	jne	SHORT $LN5@operator@2
	cmp	BYTE PTR tv86[ebp], 0
	je	SHORT $LN6@operator@2
	mov	edx, DWORD PTR tv80[ebp]
	mov	al, BYTE PTR [edx+1]
	mov	BYTE PTR tv93[ebp], al
	mov	ecx, DWORD PTR tv82[ebp]
	cmp	al, BYTE PTR [ecx+1]
	jne	SHORT $LN5@operator@2
	add	DWORD PTR tv80[ebp], 2
	add	DWORD PTR tv82[ebp], 2
	cmp	BYTE PTR tv93[ebp], 0
	jne	SHORT $LL4@operator@2
$LN6@operator@2:
	mov	DWORD PTR tv130[ebp], 0
	jmp	SHORT $LN7@operator@2
$LN5@operator@2:
	sbb	edx, edx
	sbb	edx, -1
	mov	DWORD PTR tv130[ebp], edx
$LN7@operator@2:
	mov	eax, DWORD PTR tv130[ebp]
	mov	DWORD PTR tv66[ebp], eax
	xor	eax, eax
	cmp	DWORD PTR tv66[ebp], 0
	sete	al
	jmp	SHORT $LN2@operator@2
$LN1@operator@2:

; 234  :    return index_ == other.index_;

	mov	ecx, DWORD PTR _this$[ebp]
	mov	edx, DWORD PTR _other$[ebp]
	mov	eax, DWORD PTR [ecx+4]
	xor	ecx, ecx
	cmp	eax, DWORD PTR [edx+4]
	sete	cl
	mov	al, cl
$LN2@operator@2:

; 235  : }

	mov	esp, ebp
	pop	ebp
	ret	4
??8CZString@Value@Json@@QBE_NABV012@@Z ENDP		; Json::Value::CZString::operator==
; Function compile flags: /Odtp
_TEXT	ENDS
;	COMDAT ?index@CZString@Value@Json@@QBEHXZ
_TEXT	SEGMENT
_this$ = -4						; size = 4
?index@CZString@Value@Json@@QBEHXZ PROC			; Json::Value::CZString::index, COMDAT
; _this$ = ecx

; 240  : {

	push	ebp
	mov	ebp, esp
	push	ecx
	mov	DWORD PTR _this$[ebp], ecx

; 241  :    return index_;

	mov	eax, DWORD PTR _this$[ebp]
	mov	eax, DWORD PTR [eax+4]

; 242  : }

	mov	esp, ebp
	pop	ebp
	ret	0
?index@CZString@Value@Json@@QBEHXZ ENDP			; Json::Value::CZString::index
; Function compile flags: /Odtp
_TEXT	ENDS
;	COMDAT ?c_str@CZString@Value@Json@@QBEPBDXZ
_TEXT	SEGMENT
_this$ = -4						; size = 4
?c_str@CZString@Value@Json@@QBEPBDXZ PROC		; Json::Value::CZString::c_str, COMDAT
; _this$ = ecx

; 247  : {

	push	ebp
	mov	ebp, esp
	push	ecx
	mov	DWORD PTR _this$[ebp], ecx

; 248  :    return cstr_;

	mov	eax, DWORD PTR _this$[ebp]
	mov	eax, DWORD PTR [eax]

; 249  : }

	mov	esp, ebp
	pop	ebp
	ret	0
?c_str@CZString@Value@Json@@QBEPBDXZ ENDP		; Json::Value::CZString::c_str
; Function compile flags: /Odtp
_TEXT	ENDS
;	COMDAT ?isStaticString@CZString@Value@Json@@QBE_NXZ
_TEXT	SEGMENT
_this$ = -4						; size = 4
?isStaticString@CZString@Value@Json@@QBE_NXZ PROC	; Json::Value::CZString::isStaticString, COMDAT
; _this$ = ecx

; 253  : {

	push	ebp
	mov	ebp, esp
	push	ecx
	mov	DWORD PTR _this$[ebp], ecx

; 254  :    return index_ == noDuplication;

	mov	eax, DWORD PTR _this$[ebp]
	xor	ecx, ecx
	cmp	DWORD PTR [eax+4], 0
	sete	cl
	mov	al, cl

; 255  : }

	mov	esp, ebp
	pop	ebp
	ret	0
?isStaticString@CZString@Value@Json@@QBE_NXZ ENDP	; Json::Value::CZString::isStaticString
_TEXT	ENDS
PUBLIC	??0?$map@VCZString@Value@Json@@V23@U?$less@VCZString@Value@Json@@@std@@V?$allocator@U?$pair@$$CBVCZString@Value@Json@@V23@@std@@@5@@std@@QAE@XZ ; std::map<Json::Value::CZString,Json::Value,std::less<Json::Value::CZString>,std::allocator<std::pair<Json::Value::CZString const ,Json::Value> > >::map<Json::Value::CZString,Json::Value,std::less<Json::Value::CZString>,std::allocator<std::pair<Json::Value::CZString const ,Json::Value> > >
PUBLIC	__real@0000000000000000
PUBLIC	??0Value@Json@@QAE@W4ValueType@1@@Z		; Json::Value::Value
EXTRN	??2@YAPAXI@Z:PROC				; operator new
EXTRN	__fltused:DWORD
;	COMDAT __real@0000000000000000
CONST	SEGMENT
__real@0000000000000000 DQ 00000000000000000r	; 0
CONST	ENDS
;	COMDAT xdata$x
xdata$x	SEGMENT
__unwindtable$??0Value@Json@@QAE@W4ValueType@1@@Z DD 0ffffffffH
	DD	FLAT:__unwindfunclet$??0Value@Json@@QAE@W4ValueType@1@@Z$0
__ehfuncinfo$??0Value@Json@@QAE@W4ValueType@1@@Z DD 019930522H
	DD	01H
	DD	FLAT:__unwindtable$??0Value@Json@@QAE@W4ValueType@1@@Z
	DD	2 DUP(00H)
	DD	2 DUP(00H)
	DD	00H
	DD	01H
; Function compile flags: /Odtp
xdata$x	ENDS
;	COMDAT ??0Value@Json@@QAE@W4ValueType@1@@Z
_TEXT	SEGMENT
tv81 = -32						; size = 4
tv73 = -28						; size = 4
_this$ = -24						; size = 4
$T31080 = -20						; size = 4
$T31079 = -16						; size = 4
__$EHRec$ = -12						; size = 12
_type$ = 8						; size = 4
??0Value@Json@@QAE@W4ValueType@1@@Z PROC		; Json::Value::Value, COMDAT
; _this$ = ecx

; 279  : {

	push	ebp
	mov	ebp, esp
	push	-1
	push	__ehhandler$??0Value@Json@@QAE@W4ValueType@1@@Z
	mov	eax, DWORD PTR fs:0
	push	eax
	sub	esp, 20					; 00000014H
	mov	eax, DWORD PTR ___security_cookie
	xor	eax, ebp
	push	eax
	lea	eax, DWORD PTR __$EHRec$[ebp]
	mov	DWORD PTR fs:0, eax
	mov	DWORD PTR _this$[ebp], ecx
	mov	eax, DWORD PTR _type$[ebp]
	and	eax, 255				; 000000ffH
	mov	ecx, DWORD PTR _this$[ebp]
	mov	edx, DWORD PTR [ecx+8]
	and	edx, -256				; ffffff00H
	or	edx, eax
	mov	eax, DWORD PTR _this$[ebp]
	mov	DWORD PTR [eax+8], edx
	mov	ecx, DWORD PTR _this$[ebp]
	mov	edx, DWORD PTR [ecx+8]
	and	edx, -257				; fffffeffH
	mov	eax, DWORD PTR _this$[ebp]
	mov	DWORD PTR [eax+8], edx
	mov	ecx, DWORD PTR _this$[ebp]
	mov	DWORD PTR [ecx+12], 0

; 280  :    switch ( type )

	mov	edx, DWORD PTR _type$[ebp]
	mov	DWORD PTR tv73[ebp], edx
	mov	eax, DWORD PTR tv73[ebp]
	sub	eax, 1
	mov	DWORD PTR tv73[ebp], eax
	cmp	DWORD PTR tv73[ebp], 6
	ja	SHORT $LN1@Value
	mov	ecx, DWORD PTR tv73[ebp]
	jmp	DWORD PTR $LN16@Value[ecx*4]

; 281  :    {
; 282  :    case nullValue:
; 283  :       break;

	jmp	SHORT $LN8@Value
$LN6@Value:

; 284  :    case intValue:
; 285  :    case uintValue:
; 286  :       value_.int_ = 0;

	mov	edx, DWORD PTR _this$[ebp]
	mov	DWORD PTR [edx], 0
	mov	DWORD PTR [edx+4], 0

; 287  :       break;

	jmp	SHORT $LN8@Value
$LN5@Value:

; 288  :    case realValue:
; 289  :       value_.real_ = 0.0;

	mov	eax, DWORD PTR _this$[ebp]
	fldz
	fstp	QWORD PTR [eax]

; 290  :       break;

	jmp	SHORT $LN8@Value
$LN4@Value:

; 291  :    case stringValue:
; 292  :       value_.string_ = 0;

	mov	ecx, DWORD PTR _this$[ebp]
	mov	DWORD PTR [ecx], 0

; 293  :       break;

	jmp	SHORT $LN8@Value
$LN3@Value:

; 294  : #ifndef JSON_VALUE_USE_INTERNAL_MAP
; 295  :    case arrayValue:
; 296  :    case objectValue:
; 297  :       value_.map_ = new ObjectValues();

	push	12					; 0000000cH
	call	??2@YAPAXI@Z				; operator new
	add	esp, 4
	mov	DWORD PTR $T31080[ebp], eax
	mov	DWORD PTR __$EHRec$[ebp+8], 0
	cmp	DWORD PTR $T31080[ebp], 0
	je	SHORT $LN12@Value
	mov	ecx, DWORD PTR $T31080[ebp]
	call	??0?$map@VCZString@Value@Json@@V23@U?$less@VCZString@Value@Json@@@std@@V?$allocator@U?$pair@$$CBVCZString@Value@Json@@V23@@std@@@5@@std@@QAE@XZ ; std::map<Json::Value::CZString,Json::Value,std::less<Json::Value::CZString>,std::allocator<std::pair<Json::Value::CZString const ,Json::Value> > >::map<Json::Value::CZString,Json::Value,std::less<Json::Value::CZString>,std::allocator<std::pair<Json::Value::CZString const ,Json::Value> > >
	mov	DWORD PTR tv81[ebp], eax
	jmp	SHORT $LN13@Value
$LN12@Value:
	mov	DWORD PTR tv81[ebp], 0
$LN13@Value:
	mov	edx, DWORD PTR tv81[ebp]
	mov	DWORD PTR $T31079[ebp], edx
	mov	DWORD PTR __$EHRec$[ebp+8], -1
	mov	eax, DWORD PTR _this$[ebp]
	mov	ecx, DWORD PTR $T31079[ebp]
	mov	DWORD PTR [eax], ecx

; 298  :       break;

	jmp	SHORT $LN8@Value
$LN2@Value:

; 299  : #else
; 300  :    case arrayValue:
; 301  :       value_.array_ = arrayAllocator()->newArray();
; 302  :       break;
; 303  :    case objectValue:
; 304  :       value_.map_ = mapAllocator()->newMap();
; 305  :       break;
; 306  : #endif
; 307  :    case booleanValue:
; 308  :       value_.bool_ = false;

	mov	edx, DWORD PTR _this$[ebp]
	mov	BYTE PTR [edx], 0
$LN1@Value:
$LN8@Value:

; 309  :       break;
; 310  :    default:
; 311  :       JSON_ASSERT_UNREACHABLE;
; 312  :    }
; 313  : }

	mov	eax, DWORD PTR _this$[ebp]
	mov	ecx, DWORD PTR __$EHRec$[ebp]
	mov	DWORD PTR fs:0, ecx
	pop	ecx
	mov	esp, ebp
	pop	ebp
	ret	4
	npad	2
$LN16@Value:
	DD	$LN6@Value
	DD	$LN6@Value
	DD	$LN5@Value
	DD	$LN4@Value
	DD	$LN2@Value
	DD	$LN3@Value
	DD	$LN3@Value
_TEXT	ENDS
;	COMDAT text$x
text$x	SEGMENT
__unwindfunclet$??0Value@Json@@QAE@W4ValueType@1@@Z$0:
	mov	eax, DWORD PTR $T31080[ebp]
	push	eax
	call	??3@YAXPAX@Z				; operator delete
	pop	ecx
	ret	0
__ehhandler$??0Value@Json@@QAE@W4ValueType@1@@Z:
	mov	edx, DWORD PTR [esp+8]
	lea	eax, DWORD PTR [edx+12]
	mov	ecx, DWORD PTR [edx-24]
	xor	ecx, eax
	call	@__security_check_cookie@4
	mov	eax, OFFSET __ehfuncinfo$??0Value@Json@@QAE@W4ValueType@1@@Z
	jmp	___CxxFrameHandler3
text$x	ENDS
??0Value@Json@@QAE@W4ValueType@1@@Z ENDP		; Json::Value::Value
; Function compile flags: /Odtp
;	COMDAT ??0Value@Json@@QAE@H@Z
_TEXT	SEGMENT
_this$ = -4						; size = 4
_value$ = 8						; size = 4
??0Value@Json@@QAE@H@Z PROC				; Json::Value::Value, COMDAT
; _this$ = ecx

; 322  : {

	push	ebp
	mov	ebp, esp
	push	ecx
	mov	DWORD PTR _this$[ebp], ecx
	mov	eax, DWORD PTR _this$[ebp]
	mov	ecx, DWORD PTR [eax+8]
	and	ecx, -256				; ffffff00H
	or	ecx, 1
	mov	edx, DWORD PTR _this$[ebp]
	mov	DWORD PTR [edx+8], ecx
	mov	eax, DWORD PTR _this$[ebp]
	mov	DWORD PTR [eax+12], 0

; 323  :    value_.int_ = value;

	mov	eax, DWORD PTR _value$[ebp]
	cdq
	mov	ecx, DWORD PTR _this$[ebp]
	mov	DWORD PTR [ecx], eax
	mov	DWORD PTR [ecx+4], edx

; 324  : }

	mov	eax, DWORD PTR _this$[ebp]
	mov	esp, ebp
	pop	ebp
	ret	4
??0Value@Json@@QAE@H@Z ENDP				; Json::Value::Value
_TEXT	ENDS
PUBLIC	??0Value@Json@@QAE@I@Z				; Json::Value::Value
; Function compile flags: /Odtp
;	COMDAT ??0Value@Json@@QAE@I@Z
_TEXT	SEGMENT
_this$ = -4						; size = 4
_value$ = 8						; size = 4
??0Value@Json@@QAE@I@Z PROC				; Json::Value::Value, COMDAT
; _this$ = ecx

; 333  : {

	push	ebp
	mov	ebp, esp
	push	ecx
	mov	DWORD PTR _this$[ebp], ecx
	mov	eax, DWORD PTR _this$[ebp]
	mov	ecx, DWORD PTR [eax+8]
	and	ecx, -256				; ffffff00H
	or	ecx, 2
	mov	edx, DWORD PTR _this$[ebp]
	mov	DWORD PTR [edx+8], ecx
	mov	eax, DWORD PTR _this$[ebp]
	mov	DWORD PTR [eax+12], 0

; 334  :    value_.uint_ = value;

	mov	ecx, DWORD PTR _value$[ebp]
	xor	edx, edx
	mov	eax, DWORD PTR _this$[ebp]
	mov	DWORD PTR [eax], ecx
	mov	DWORD PTR [eax+4], edx

; 335  : }

	mov	eax, DWORD PTR _this$[ebp]
	mov	esp, ebp
	pop	ebp
	ret	4
??0Value@Json@@QAE@I@Z ENDP				; Json::Value::Value
_TEXT	ENDS
PUBLIC	??0Value@Json@@QAE@_J@Z				; Json::Value::Value
; Function compile flags: /Odtp
;	COMDAT ??0Value@Json@@QAE@_J@Z
_TEXT	SEGMENT
_this$ = -4						; size = 4
_value$ = 8						; size = 8
??0Value@Json@@QAE@_J@Z PROC				; Json::Value::Value, COMDAT
; _this$ = ecx

; 343  : {

	push	ebp
	mov	ebp, esp
	push	ecx
	mov	DWORD PTR _this$[ebp], ecx
	mov	eax, DWORD PTR _this$[ebp]
	mov	ecx, DWORD PTR [eax+8]
	and	ecx, -256				; ffffff00H
	or	ecx, 1
	mov	edx, DWORD PTR _this$[ebp]
	mov	DWORD PTR [edx+8], ecx
	mov	eax, DWORD PTR _this$[ebp]
	mov	DWORD PTR [eax+12], 0

; 344  : 	value_.uint_ = value;

	mov	ecx, DWORD PTR _this$[ebp]
	mov	edx, DWORD PTR _value$[ebp]
	mov	DWORD PTR [ecx], edx
	mov	eax, DWORD PTR _value$[ebp+4]
	mov	DWORD PTR [ecx+4], eax

; 345  : }

	mov	eax, DWORD PTR _this$[ebp]
	mov	esp, ebp
	pop	ebp
	ret	8
??0Value@Json@@QAE@_J@Z ENDP				; Json::Value::Value
_TEXT	ENDS
PUBLIC	??0Value@Json@@QAE@_K@Z				; Json::Value::Value
; Function compile flags: /Odtp
;	COMDAT ??0Value@Json@@QAE@_K@Z
_TEXT	SEGMENT
_this$ = -4						; size = 4
_value$ = 8						; size = 8
??0Value@Json@@QAE@_K@Z PROC				; Json::Value::Value, COMDAT
; _this$ = ecx

; 353  : {

	push	ebp
	mov	ebp, esp
	push	ecx
	mov	DWORD PTR _this$[ebp], ecx
	mov	eax, DWORD PTR _this$[ebp]
	mov	ecx, DWORD PTR [eax+8]
	and	ecx, -256				; ffffff00H
	or	ecx, 2
	mov	edx, DWORD PTR _this$[ebp]
	mov	DWORD PTR [edx+8], ecx
	mov	eax, DWORD PTR _this$[ebp]
	mov	DWORD PTR [eax+12], 0

; 354  : 	value_.uint_ = value;

	mov	ecx, DWORD PTR _this$[ebp]
	mov	edx, DWORD PTR _value$[ebp]
	mov	DWORD PTR [ecx], edx
	mov	eax, DWORD PTR _value$[ebp+4]
	mov	DWORD PTR [ecx+4], eax

; 355  : }

	mov	eax, DWORD PTR _this$[ebp]
	mov	esp, ebp
	pop	ebp
	ret	8
??0Value@Json@@QAE@_K@Z ENDP				; Json::Value::Value
_TEXT	ENDS
PUBLIC	??0Value@Json@@QAE@N@Z				; Json::Value::Value
; Function compile flags: /Odtp
;	COMDAT ??0Value@Json@@QAE@N@Z
_TEXT	SEGMENT
_this$ = -4						; size = 4
_value$ = 8						; size = 8
??0Value@Json@@QAE@N@Z PROC				; Json::Value::Value, COMDAT
; _this$ = ecx

; 363  : {

	push	ebp
	mov	ebp, esp
	push	ecx
	mov	DWORD PTR _this$[ebp], ecx
	mov	eax, DWORD PTR _this$[ebp]
	mov	ecx, DWORD PTR [eax+8]
	and	ecx, -256				; ffffff00H
	or	ecx, 3
	mov	edx, DWORD PTR _this$[ebp]
	mov	DWORD PTR [edx+8], ecx
	mov	eax, DWORD PTR _this$[ebp]
	mov	DWORD PTR [eax+12], 0

; 364  :    value_.real_ = value;

	mov	ecx, DWORD PTR _this$[ebp]
	fld	QWORD PTR _value$[ebp]
	fstp	QWORD PTR [ecx]

; 365  : }

	mov	eax, DWORD PTR _this$[ebp]
	mov	esp, ebp
	pop	ebp
	ret	8
??0Value@Json@@QAE@N@Z ENDP				; Json::Value::Value
; Function compile flags: /Odtp
_TEXT	ENDS
;	COMDAT ??0Value@Json@@QAE@PBD@Z
_TEXT	SEGMENT
tv75 = -8						; size = 4
_this$ = -4						; size = 4
_value$ = 8						; size = 4
??0Value@Json@@QAE@PBD@Z PROC				; Json::Value::Value, COMDAT
; _this$ = ecx

; 374  : {

	push	ebp
	mov	ebp, esp
	sub	esp, 8
	mov	DWORD PTR _this$[ebp], ecx
	mov	eax, DWORD PTR _this$[ebp]
	mov	ecx, DWORD PTR [eax+8]
	and	ecx, -256				; ffffff00H
	or	ecx, 4
	mov	edx, DWORD PTR _this$[ebp]
	mov	DWORD PTR [edx+8], ecx
	mov	eax, DWORD PTR _this$[ebp]
	mov	ecx, DWORD PTR [eax+8]
	or	ecx, 256				; 00000100H
	mov	edx, DWORD PTR _this$[ebp]
	mov	DWORD PTR [edx+8], ecx
	mov	eax, DWORD PTR _this$[ebp]
	mov	DWORD PTR [eax+12], 0

; 375  :    value_.string_ = valueAllocator()->duplicateStringValue( value );

	call	?valueAllocator@Json@@YAAAPAVValueAllocator@1@XZ ; Json::valueAllocator
	mov	ecx, DWORD PTR [eax]
	mov	DWORD PTR tv75[ebp], ecx
	push	-1
	mov	edx, DWORD PTR _value$[ebp]
	push	edx
	mov	eax, DWORD PTR tv75[ebp]
	mov	edx, DWORD PTR [eax]
	mov	ecx, DWORD PTR tv75[ebp]
	mov	eax, DWORD PTR [edx+12]
	call	eax
	mov	ecx, DWORD PTR _this$[ebp]
	mov	DWORD PTR [ecx], eax

; 376  : }

	mov	eax, DWORD PTR _this$[ebp]
	mov	esp, ebp
	pop	ebp
	ret	4
??0Value@Json@@QAE@PBD@Z ENDP				; Json::Value::Value
_TEXT	ENDS
PUBLIC	??0Value@Json@@QAE@PBD0@Z			; Json::Value::Value
; Function compile flags: /Odtp
;	COMDAT ??0Value@Json@@QAE@PBD0@Z
_TEXT	SEGMENT
tv75 = -8						; size = 4
_this$ = -4						; size = 4
_beginValue$ = 8					; size = 4
_endValue$ = 12						; size = 4
??0Value@Json@@QAE@PBD0@Z PROC				; Json::Value::Value, COMDAT
; _this$ = ecx

; 387  : {

	push	ebp
	mov	ebp, esp
	sub	esp, 8
	mov	DWORD PTR _this$[ebp], ecx
	mov	eax, DWORD PTR _this$[ebp]
	mov	ecx, DWORD PTR [eax+8]
	and	ecx, -256				; ffffff00H
	or	ecx, 4
	mov	edx, DWORD PTR _this$[ebp]
	mov	DWORD PTR [edx+8], ecx
	mov	eax, DWORD PTR _this$[ebp]
	mov	ecx, DWORD PTR [eax+8]
	or	ecx, 256				; 00000100H
	mov	edx, DWORD PTR _this$[ebp]
	mov	DWORD PTR [edx+8], ecx
	mov	eax, DWORD PTR _this$[ebp]
	mov	DWORD PTR [eax+12], 0

; 388  :    value_.string_ = valueAllocator()->duplicateStringValue( beginValue, 
; 389  :                                                             UInt(endValue - beginValue) );

	call	?valueAllocator@Json@@YAAAPAVValueAllocator@1@XZ ; Json::valueAllocator
	mov	ecx, DWORD PTR [eax]
	mov	DWORD PTR tv75[ebp], ecx
	mov	edx, DWORD PTR _endValue$[ebp]
	sub	edx, DWORD PTR _beginValue$[ebp]
	push	edx
	mov	eax, DWORD PTR _beginValue$[ebp]
	push	eax
	mov	ecx, DWORD PTR tv75[ebp]
	mov	edx, DWORD PTR [ecx]
	mov	ecx, DWORD PTR tv75[ebp]
	mov	eax, DWORD PTR [edx+12]
	call	eax
	mov	ecx, DWORD PTR _this$[ebp]
	mov	DWORD PTR [ecx], eax

; 390  : }

	mov	eax, DWORD PTR _this$[ebp]
	mov	esp, ebp
	pop	ebp
	ret	8
??0Value@Json@@QAE@PBD0@Z ENDP				; Json::Value::Value
_TEXT	ENDS
PUBLIC	??0Value@Json@@QAE@ABV?$basic_string@DU?$char_traits@D@std@@V?$allocator@D@2@@std@@@Z ; Json::Value::Value
EXTRN	__imp_?length@?$basic_string@DU?$char_traits@D@std@@V?$allocator@D@2@@std@@QBEIXZ:PROC
; Function compile flags: /Odtp
;	COMDAT ??0Value@Json@@QAE@ABV?$basic_string@DU?$char_traits@D@std@@V?$allocator@D@2@@std@@@Z
_TEXT	SEGMENT
tv75 = -8						; size = 4
_this$ = -4						; size = 4
_value$ = 8						; size = 4
??0Value@Json@@QAE@ABV?$basic_string@DU?$char_traits@D@std@@V?$allocator@D@2@@std@@@Z PROC ; Json::Value::Value, COMDAT
; _this$ = ecx

; 400  : {

	push	ebp
	mov	ebp, esp
	sub	esp, 8
	mov	DWORD PTR _this$[ebp], ecx
	mov	eax, DWORD PTR _this$[ebp]
	mov	ecx, DWORD PTR [eax+8]
	and	ecx, -256				; ffffff00H
	or	ecx, 4
	mov	edx, DWORD PTR _this$[ebp]
	mov	DWORD PTR [edx+8], ecx
	mov	eax, DWORD PTR _this$[ebp]
	mov	ecx, DWORD PTR [eax+8]
	or	ecx, 256				; 00000100H
	mov	edx, DWORD PTR _this$[ebp]
	mov	DWORD PTR [edx+8], ecx
	mov	eax, DWORD PTR _this$[ebp]
	mov	DWORD PTR [eax+12], 0

; 401  :    value_.string_ = valueAllocator()->duplicateStringValue( value.c_str(), 
; 402  :                                                             (unsigned int)value.length() );

	call	?valueAllocator@Json@@YAAAPAVValueAllocator@1@XZ ; Json::valueAllocator
	mov	ecx, DWORD PTR [eax]
	mov	DWORD PTR tv75[ebp], ecx
	mov	ecx, DWORD PTR _value$[ebp]
	call	DWORD PTR __imp_?length@?$basic_string@DU?$char_traits@D@std@@V?$allocator@D@2@@std@@QBEIXZ
	push	eax
	mov	ecx, DWORD PTR _value$[ebp]
	call	DWORD PTR __imp_?c_str@?$basic_string@DU?$char_traits@D@std@@V?$allocator@D@2@@std@@QBEPBDXZ
	push	eax
	mov	edx, DWORD PTR tv75[ebp]
	mov	eax, DWORD PTR [edx]
	mov	ecx, DWORD PTR tv75[ebp]
	mov	edx, DWORD PTR [eax+12]
	call	edx
	mov	ecx, DWORD PTR _this$[ebp]
	mov	DWORD PTR [ecx], eax

; 403  : 
; 404  : }

	mov	eax, DWORD PTR _this$[ebp]
	mov	esp, ebp
	pop	ebp
	ret	4
??0Value@Json@@QAE@ABV?$basic_string@DU?$char_traits@D@std@@V?$allocator@D@2@@std@@@Z ENDP ; Json::Value::Value
_TEXT	ENDS
PUBLIC	?c_str@StaticString@Json@@QBEPBDXZ		; Json::StaticString::c_str
; Function compile flags: /Odtp
;	COMDAT ??0Value@Json@@QAE@ABVStaticString@1@@Z
_TEXT	SEGMENT
_this$ = -4						; size = 4
_value$ = 8						; size = 4
??0Value@Json@@QAE@ABVStaticString@1@@Z PROC		; Json::Value::Value, COMDAT
; _this$ = ecx

; 413  : {

	push	ebp
	mov	ebp, esp
	push	ecx
	mov	DWORD PTR _this$[ebp], ecx
	mov	eax, DWORD PTR _this$[ebp]
	mov	ecx, DWORD PTR [eax+8]
	and	ecx, -256				; ffffff00H
	or	ecx, 4
	mov	edx, DWORD PTR _this$[ebp]
	mov	DWORD PTR [edx+8], ecx
	mov	eax, DWORD PTR _this$[ebp]
	mov	ecx, DWORD PTR [eax+8]
	and	ecx, -257				; fffffeffH
	mov	edx, DWORD PTR _this$[ebp]
	mov	DWORD PTR [edx+8], ecx
	mov	eax, DWORD PTR _this$[ebp]
	mov	DWORD PTR [eax+12], 0

; 414  :    value_.string_ = const_cast<char *>( value.c_str() );

	mov	ecx, DWORD PTR _value$[ebp]
	call	?c_str@StaticString@Json@@QBEPBDXZ	; Json::StaticString::c_str
	mov	ecx, DWORD PTR _this$[ebp]
	mov	DWORD PTR [ecx], eax

; 415  : }

	mov	eax, DWORD PTR _this$[ebp]
	mov	esp, ebp
	pop	ebp
	ret	4
??0Value@Json@@QAE@ABVStaticString@1@@Z ENDP		; Json::Value::Value
; Function compile flags: /Odtp
; File d:\git_zqprojs\zqproj\generic\cdmifuse\jsoncpp-src-0.5.0\include\json\value.h
_TEXT	ENDS
;	COMDAT ?c_str@StaticString@Json@@QBEPBDXZ
_TEXT	SEGMENT
_this$ = -4						; size = 4
?c_str@StaticString@Json@@QBEPBDXZ PROC			; Json::StaticString::c_str, COMDAT
; _this$ = ecx

; 76   :       {

	push	ebp
	mov	ebp, esp
	push	ecx
	mov	DWORD PTR _this$[ebp], ecx

; 77   :          return str_;

	mov	eax, DWORD PTR _this$[ebp]
	mov	eax, DWORD PTR [eax]

; 78   :       }

	mov	esp, ebp
	pop	ebp
	ret	0
?c_str@StaticString@Json@@QBEPBDXZ ENDP			; Json::StaticString::c_str
_TEXT	ENDS
PUBLIC	??0Value@Json@@QAE@_N@Z				; Json::Value::Value
; Function compile flags: /Odtp
; File d:\git_zqprojs\zqproj\generic\cdmifuse\jsoncpp-src-0.5.0\src\lib_json\json_value.cpp
;	COMDAT ??0Value@Json@@QAE@_N@Z
_TEXT	SEGMENT
_this$ = -4						; size = 4
_value$ = 8						; size = 1
??0Value@Json@@QAE@_N@Z PROC				; Json::Value::Value, COMDAT
; _this$ = ecx

; 437  : {

	push	ebp
	mov	ebp, esp
	push	ecx
	mov	DWORD PTR _this$[ebp], ecx
	mov	eax, DWORD PTR _this$[ebp]
	mov	ecx, DWORD PTR [eax+8]
	and	ecx, -256				; ffffff00H
	or	ecx, 5
	mov	edx, DWORD PTR _this$[ebp]
	mov	DWORD PTR [edx+8], ecx
	mov	eax, DWORD PTR _this$[ebp]
	mov	DWORD PTR [eax+12], 0

; 438  :    value_.bool_ = value;

	mov	ecx, DWORD PTR _this$[ebp]
	mov	dl, BYTE PTR _value$[ebp]
	mov	BYTE PTR [ecx], dl

; 439  : }

	mov	eax, DWORD PTR _this$[ebp]
	mov	esp, ebp
	pop	ebp
	ret	4
??0Value@Json@@QAE@_N@Z ENDP				; Json::Value::Value
_TEXT	ENDS
PUBLIC	??0?$map@VCZString@Value@Json@@V23@U?$less@VCZString@Value@Json@@@std@@V?$allocator@U?$pair@$$CBVCZString@Value@Json@@V23@@std@@@5@@std@@QAE@ABV01@@Z ; std::map<Json::Value::CZString,Json::Value,std::less<Json::Value::CZString>,std::allocator<std::pair<Json::Value::CZString const ,Json::Value> > >::map<Json::Value::CZString,Json::Value,std::less<Json::Value::CZString>,std::allocator<std::pair<Json::Value::CZString const ,Json::Value> > >
PUBLIC	??0Value@Json@@QAE@ABV01@@Z			; Json::Value::Value
EXTRN	??_V@YAXPAX@Z:PROC				; operator delete[]
EXTRN	??_L@YGXPAXIHP6EX0@Z1@Z:PROC			; `eh vector constructor iterator'
EXTRN	??_U@YAPAXI@Z:PROC				; operator new[]
;	COMDAT xdata$x
xdata$x	SEGMENT
__unwindtable$??0Value@Json@@QAE@ABV01@@Z DD 0ffffffffH
	DD	FLAT:__unwindfunclet$??0Value@Json@@QAE@ABV01@@Z$0
	DD	0ffffffffH
	DD	FLAT:__unwindfunclet$??0Value@Json@@QAE@ABV01@@Z$1
__ehfuncinfo$??0Value@Json@@QAE@ABV01@@Z DD 019930522H
	DD	02H
	DD	FLAT:__unwindtable$??0Value@Json@@QAE@ABV01@@Z
	DD	2 DUP(00H)
	DD	2 DUP(00H)
	DD	00H
	DD	01H
; Function compile flags: /Odtp
xdata$x	ENDS
;	COMDAT ??0Value@Json@@QAE@ABV01@@Z
_TEXT	SEGMENT
tv147 = -56						; size = 4
tv131 = -52						; size = 4
tv82 = -48						; size = 4
tv76 = -44						; size = 4
_this$ = -40						; size = 4
$T31123 = -36						; size = 4
$T31122 = -32						; size = 4
$T31119 = -28						; size = 4
$T31118 = -24						; size = 4
_otherComment$21182 = -20				; size = 4
_comment$21178 = -16					; size = 4
__$EHRec$ = -12						; size = 12
_other$ = 8						; size = 4
??0Value@Json@@QAE@ABV01@@Z PROC			; Json::Value::Value, COMDAT
; _this$ = ecx

; 448  : {

	push	ebp
	mov	ebp, esp
	push	-1
	push	__ehhandler$??0Value@Json@@QAE@ABV01@@Z
	mov	eax, DWORD PTR fs:0
	push	eax
	sub	esp, 44					; 0000002cH
	mov	eax, DWORD PTR ___security_cookie
	xor	eax, ebp
	push	eax
	lea	eax, DWORD PTR __$EHRec$[ebp]
	mov	DWORD PTR fs:0, eax
	mov	DWORD PTR _this$[ebp], ecx
	mov	eax, DWORD PTR _other$[ebp]
	mov	ecx, DWORD PTR [eax+8]
	shl	ecx, 24					; 00000018H
	sar	ecx, 24					; 00000018H
	and	ecx, 255				; 000000ffH
	mov	edx, DWORD PTR _this$[ebp]
	mov	eax, DWORD PTR [edx+8]
	and	eax, -256				; ffffff00H
	or	eax, ecx
	mov	ecx, DWORD PTR _this$[ebp]
	mov	DWORD PTR [ecx+8], eax
	mov	edx, DWORD PTR _this$[ebp]
	mov	DWORD PTR [edx+12], 0

; 449  :    switch ( type_ )

	mov	eax, DWORD PTR _this$[ebp]
	mov	ecx, DWORD PTR [eax+8]
	shl	ecx, 24					; 00000018H
	sar	ecx, 24					; 00000018H
	mov	DWORD PTR tv76[ebp], ecx
	cmp	DWORD PTR tv76[ebp], 7
	ja	$LN12@Value@2
	mov	edx, DWORD PTR tv76[ebp]
	jmp	DWORD PTR $LN23@Value@2[edx*4]
$LN11@Value@2:

; 450  :    {
; 451  :    case nullValue:
; 452  :    case intValue:
; 453  :    case uintValue:
; 454  :    case realValue:
; 455  :    case booleanValue:
; 456  :       value_ = other.value_;

	mov	eax, DWORD PTR _other$[ebp]
	mov	ecx, DWORD PTR [eax]
	mov	edx, DWORD PTR [eax+4]
	mov	eax, DWORD PTR _this$[ebp]
	mov	DWORD PTR [eax], ecx
	mov	DWORD PTR [eax+4], edx

; 457  :       break;

	jmp	$LN12@Value@2
$LN10@Value@2:

; 458  :    case stringValue:
; 459  :       if ( other.value_.string_ )

	mov	ecx, DWORD PTR _other$[ebp]
	cmp	DWORD PTR [ecx], 0
	je	SHORT $LN9@Value@2

; 460  :       {
; 461  :          value_.string_ = valueAllocator()->duplicateStringValue( other.value_.string_ );

	call	?valueAllocator@Json@@YAAAPAVValueAllocator@1@XZ ; Json::valueAllocator
	mov	edx, DWORD PTR [eax]
	mov	DWORD PTR tv82[ebp], edx
	push	-1
	mov	eax, DWORD PTR _other$[ebp]
	mov	ecx, DWORD PTR [eax]
	push	ecx
	mov	edx, DWORD PTR tv82[ebp]
	mov	eax, DWORD PTR [edx]
	mov	ecx, DWORD PTR tv82[ebp]
	mov	edx, DWORD PTR [eax+12]
	call	edx
	mov	ecx, DWORD PTR _this$[ebp]
	mov	DWORD PTR [ecx], eax

; 462  :          allocated_ = true;

	mov	edx, DWORD PTR _this$[ebp]
	mov	eax, DWORD PTR [edx+8]
	or	eax, 256				; 00000100H
	mov	ecx, DWORD PTR _this$[ebp]
	mov	DWORD PTR [ecx+8], eax

; 463  :       }
; 464  :       else

	jmp	SHORT $LN8@Value@2
$LN9@Value@2:

; 465  :          value_.string_ = 0;

	mov	edx, DWORD PTR _this$[ebp]
	mov	DWORD PTR [edx], 0
$LN8@Value@2:

; 466  :       break;

	jmp	SHORT $LN12@Value@2
$LN7@Value@2:

; 467  : #ifndef JSON_VALUE_USE_INTERNAL_MAP
; 468  :    case arrayValue:
; 469  :    case objectValue:
; 470  :       value_.map_ = new ObjectValues( *other.value_.map_ );

	push	12					; 0000000cH
	call	??2@YAPAXI@Z				; operator new
	add	esp, 4
	mov	DWORD PTR $T31119[ebp], eax
	mov	DWORD PTR __$EHRec$[ebp+8], 0
	cmp	DWORD PTR $T31119[ebp], 0
	je	SHORT $LN16@Value@2
	mov	eax, DWORD PTR _other$[ebp]
	mov	ecx, DWORD PTR [eax]
	push	ecx
	mov	ecx, DWORD PTR $T31119[ebp]
	call	??0?$map@VCZString@Value@Json@@V23@U?$less@VCZString@Value@Json@@@std@@V?$allocator@U?$pair@$$CBVCZString@Value@Json@@V23@@std@@@5@@std@@QAE@ABV01@@Z
	mov	DWORD PTR tv131[ebp], eax
	jmp	SHORT $LN17@Value@2
$LN16@Value@2:
	mov	DWORD PTR tv131[ebp], 0
$LN17@Value@2:
	mov	edx, DWORD PTR tv131[ebp]
	mov	DWORD PTR $T31118[ebp], edx
	mov	DWORD PTR __$EHRec$[ebp+8], -1
	mov	eax, DWORD PTR _this$[ebp]
	mov	ecx, DWORD PTR $T31118[ebp]
	mov	DWORD PTR [eax], ecx
$LN12@Value@2:

; 471  :       break;
; 472  : #else
; 473  :    case arrayValue:
; 474  :       value_.array_ = arrayAllocator()->newArrayCopy( *other.value_.array_ );
; 475  :       break;
; 476  :    case objectValue:
; 477  :       value_.map_ = mapAllocator()->newMapCopy( *other.value_.map_ );
; 478  :       break;
; 479  : #endif
; 480  :    default:
; 481  :       JSON_ASSERT_UNREACHABLE;
; 482  :    }
; 483  :    if ( other.comments_ )

	mov	edx, DWORD PTR _other$[ebp]
	cmp	DWORD PTR [edx+12], 0
	je	$LN14@Value@2

; 484  :    {
; 485  :       comments_ = new CommentInfo[numberOfCommentPlacement];

	push	16					; 00000010H
	call	??_U@YAPAXI@Z				; operator new[]
	add	esp, 4
	mov	DWORD PTR $T31123[ebp], eax
	mov	DWORD PTR __$EHRec$[ebp+8], 1
	cmp	DWORD PTR $T31123[ebp], 0
	je	SHORT $LN18@Value@2
	mov	eax, DWORD PTR $T31123[ebp]
	mov	DWORD PTR [eax], 3
	push	OFFSET ??1CommentInfo@Value@Json@@QAE@XZ ; Json::Value::CommentInfo::~CommentInfo
	push	OFFSET ??0CommentInfo@Value@Json@@QAE@XZ ; Json::Value::CommentInfo::CommentInfo
	push	3
	push	4
	mov	ecx, DWORD PTR $T31123[ebp]
	add	ecx, 4
	push	ecx
	call	??_L@YGXPAXIHP6EX0@Z1@Z
	mov	edx, DWORD PTR $T31123[ebp]
	add	edx, 4
	mov	DWORD PTR tv147[ebp], edx
	jmp	SHORT $LN19@Value@2
$LN18@Value@2:
	mov	DWORD PTR tv147[ebp], 0
$LN19@Value@2:
	mov	eax, DWORD PTR tv147[ebp]
	mov	DWORD PTR $T31122[ebp], eax
	mov	DWORD PTR __$EHRec$[ebp+8], -1
	mov	ecx, DWORD PTR _this$[ebp]
	mov	edx, DWORD PTR $T31122[ebp]
	mov	DWORD PTR [ecx+12], edx

; 486  :       for ( int comment =0; comment < numberOfCommentPlacement; ++comment )

	mov	DWORD PTR _comment$21178[ebp], 0
	jmp	SHORT $LN4@Value@2
$LN3@Value@2:
	mov	eax, DWORD PTR _comment$21178[ebp]
	add	eax, 1
	mov	DWORD PTR _comment$21178[ebp], eax
$LN4@Value@2:
	cmp	DWORD PTR _comment$21178[ebp], 3
	jge	SHORT $LN14@Value@2

; 487  :       {
; 488  :          const CommentInfo &otherComment = other.comments_[comment];

	mov	ecx, DWORD PTR _other$[ebp]
	mov	edx, DWORD PTR [ecx+12]
	mov	eax, DWORD PTR _comment$21178[ebp]
	lea	ecx, DWORD PTR [edx+eax*4]
	mov	DWORD PTR _otherComment$21182[ebp], ecx

; 489  :          if ( otherComment.comment_ )

	mov	edx, DWORD PTR _otherComment$21182[ebp]
	cmp	DWORD PTR [edx], 0
	je	SHORT $LN1@Value@2

; 490  :             comments_[comment].setComment( otherComment.comment_ );

	mov	eax, DWORD PTR _otherComment$21182[ebp]
	mov	ecx, DWORD PTR [eax]
	push	ecx
	mov	edx, DWORD PTR _this$[ebp]
	mov	eax, DWORD PTR [edx+12]
	mov	ecx, DWORD PTR _comment$21178[ebp]
	lea	ecx, DWORD PTR [eax+ecx*4]
	call	?setComment@CommentInfo@Value@Json@@QAEXPBD@Z ; Json::Value::CommentInfo::setComment
$LN1@Value@2:

; 491  :       }

	jmp	SHORT $LN3@Value@2
$LN14@Value@2:

; 492  :    }
; 493  : }

	mov	eax, DWORD PTR _this$[ebp]
	mov	ecx, DWORD PTR __$EHRec$[ebp]
	mov	DWORD PTR fs:0, ecx
	pop	ecx
	mov	esp, ebp
	pop	ebp
	ret	4
$LN23@Value@2:
	DD	$LN11@Value@2
	DD	$LN11@Value@2
	DD	$LN11@Value@2
	DD	$LN11@Value@2
	DD	$LN10@Value@2
	DD	$LN11@Value@2
	DD	$LN7@Value@2
	DD	$LN7@Value@2
_TEXT	ENDS
;	COMDAT text$x
text$x	SEGMENT
__unwindfunclet$??0Value@Json@@QAE@ABV01@@Z$0:
	mov	eax, DWORD PTR $T31119[ebp]
	push	eax
	call	??3@YAXPAX@Z				; operator delete
	pop	ecx
	ret	0
__unwindfunclet$??0Value@Json@@QAE@ABV01@@Z$1:
	mov	eax, DWORD PTR $T31123[ebp]
	push	eax
	call	??_V@YAXPAX@Z				; operator delete[]
	pop	ecx
	ret	0
__ehhandler$??0Value@Json@@QAE@ABV01@@Z:
	mov	edx, DWORD PTR [esp+8]
	lea	eax, DWORD PTR [edx+12]
	mov	ecx, DWORD PTR [edx-48]
	xor	ecx, eax
	call	@__security_check_cookie@4
	mov	eax, OFFSET __ehfuncinfo$??0Value@Json@@QAE@ABV01@@Z
	jmp	___CxxFrameHandler3
text$x	ENDS
??0Value@Json@@QAE@ABV01@@Z ENDP			; Json::Value::Value
PUBLIC	??0?$_Tree@V?$_Tmap_traits@VCZString@Value@Json@@V23@U?$less@VCZString@Value@Json@@@std@@V?$allocator@U?$pair@$$CBVCZString@Value@Json@@V23@@std@@@5@$0A@@std@@@std@@QAE@ABV01@@Z ; std::_Tree<std::_Tmap_traits<Json::Value::CZString,Json::Value,std::less<Json::Value::CZString>,std::allocator<std::pair<Json::Value::CZString const ,Json::Value> >,0> >::_Tree<std::_Tmap_traits<Json::Value::CZString,Json::Value,std::less<Json::Value::CZString>,std::allocator<std::pair<Json::Value::CZString const ,Json::Value> >,0> >
; Function compile flags: /Odtp
;	COMDAT ??0?$map@VCZString@Value@Json@@V23@U?$less@VCZString@Value@Json@@@std@@V?$allocator@U?$pair@$$CBVCZString@Value@Json@@V23@@std@@@5@@std@@QAE@ABV01@@Z
_TEXT	SEGMENT
_this$ = -4						; size = 4
___that$ = 8						; size = 4
??0?$map@VCZString@Value@Json@@V23@U?$less@VCZString@Value@Json@@@std@@V?$allocator@U?$pair@$$CBVCZString@Value@Json@@V23@@std@@@5@@std@@QAE@ABV01@@Z PROC ; std::map<Json::Value::CZString,Json::Value,std::less<Json::Value::CZString>,std::allocator<std::pair<Json::Value::CZString const ,Json::Value> > >::map<Json::Value::CZString,Json::Value,std::less<Json::Value::CZString>,std::allocator<std::pair<Json::Value::CZString const ,Json::Value> > >, COMDAT
; _this$ = ecx
	push	ebp
	mov	ebp, esp
	push	ecx
	mov	DWORD PTR _this$[ebp], ecx
	mov	eax, DWORD PTR ___that$[ebp]
	push	eax
	mov	ecx, DWORD PTR _this$[ebp]
	call	??0?$_Tree@V?$_Tmap_traits@VCZString@Value@Json@@V23@U?$less@VCZString@Value@Json@@@std@@V?$allocator@U?$pair@$$CBVCZString@Value@Json@@V23@@std@@@5@$0A@@std@@@std@@QAE@ABV01@@Z ; std::_Tree<std::_Tmap_traits<Json::Value::CZString,Json::Value,std::less<Json::Value::CZString>,std::allocator<std::pair<Json::Value::CZString const ,Json::Value> >,0> >::_Tree<std::_Tmap_traits<Json::Value::CZString,Json::Value,std::less<Json::Value::CZString>,std::allocator<std::pair<Json::Value::CZString const ,Json::Value> >,0> >
	mov	eax, DWORD PTR _this$[ebp]
	mov	esp, ebp
	pop	ebp
	ret	4
??0?$map@VCZString@Value@Json@@V23@U?$less@VCZString@Value@Json@@@std@@V?$allocator@U?$pair@$$CBVCZString@Value@Json@@V23@@std@@@5@@std@@QAE@ABV01@@Z ENDP ; std::map<Json::Value::CZString,Json::Value,std::less<Json::Value::CZString>,std::allocator<std::pair<Json::Value::CZString const ,Json::Value> > >::map<Json::Value::CZString,Json::Value,std::less<Json::Value::CZString>,std::allocator<std::pair<Json::Value::CZString const ,Json::Value> > >
_TEXT	ENDS
PUBLIC	??_ECommentInfo@Value@Json@@QAEPAXI@Z		; Json::Value::CommentInfo::`vector deleting destructor'
EXTRN	??_M@YGXPAXIHP6EX0@Z@Z:PROC			; `eh vector destructor iterator'
; Function compile flags: /Odtp
;	COMDAT ??_ECommentInfo@Value@Json@@QAEPAXI@Z
_TEXT	SEGMENT
_this$ = -4						; size = 4
___flags$ = 8						; size = 4
??_ECommentInfo@Value@Json@@QAEPAXI@Z PROC		; Json::Value::CommentInfo::`vector deleting destructor', COMDAT
; _this$ = ecx
	push	ebp
	mov	ebp, esp
	push	ecx
	mov	DWORD PTR _this$[ebp], ecx
	mov	eax, DWORD PTR ___flags$[ebp]
	and	eax, 2
	je	SHORT $LN3@vector
	push	OFFSET ??1CommentInfo@Value@Json@@QAE@XZ ; Json::Value::CommentInfo::~CommentInfo
	mov	ecx, DWORD PTR _this$[ebp]
	mov	edx, DWORD PTR [ecx-4]
	push	edx
	push	4
	mov	eax, DWORD PTR _this$[ebp]
	push	eax
	call	??_M@YGXPAXIHP6EX0@Z@Z
	mov	ecx, DWORD PTR ___flags$[ebp]
	and	ecx, 1
	je	SHORT $LN2@vector
	mov	edx, DWORD PTR _this$[ebp]
	sub	edx, 4
	push	edx
	call	??_V@YAXPAX@Z				; operator delete[]
	add	esp, 4
$LN2@vector:
	mov	eax, DWORD PTR _this$[ebp]
	sub	eax, 4
	jmp	SHORT $LN4@vector
$LN3@vector:
	mov	ecx, DWORD PTR _this$[ebp]
	call	??1CommentInfo@Value@Json@@QAE@XZ	; Json::Value::CommentInfo::~CommentInfo
	mov	eax, DWORD PTR ___flags$[ebp]
	and	eax, 1
	je	SHORT $LN1@vector
	mov	ecx, DWORD PTR _this$[ebp]
	push	ecx
	call	??3@YAXPAX@Z				; operator delete
	add	esp, 4
$LN1@vector:
	mov	eax, DWORD PTR _this$[ebp]
$LN4@vector:
	mov	esp, ebp
	pop	ebp
	ret	4
??_ECommentInfo@Value@Json@@QAEPAXI@Z ENDP		; Json::Value::CommentInfo::`vector deleting destructor'
_TEXT	ENDS
PUBLIC	??_G?$map@VCZString@Value@Json@@V23@U?$less@VCZString@Value@Json@@@std@@V?$allocator@U?$pair@$$CBVCZString@Value@Json@@V23@@std@@@5@@std@@QAEPAXI@Z ; std::map<Json::Value::CZString,Json::Value,std::less<Json::Value::CZString>,std::allocator<std::pair<Json::Value::CZString const ,Json::Value> > >::`scalar deleting destructor'
; Function compile flags: /Odtp
;	COMDAT ??1Value@Json@@QAE@XZ
_TEXT	SEGMENT
tv94 = -36						; size = 4
tv83 = -32						; size = 4
tv75 = -28						; size = 4
tv67 = -24						; size = 4
_this$ = -20						; size = 4
$T31147 = -16						; size = 4
$T31146 = -12						; size = 4
$T31143 = -8						; size = 4
$T31142 = -4						; size = 4
??1Value@Json@@QAE@XZ PROC				; Json::Value::~Value, COMDAT
; _this$ = ecx

; 497  : {

	push	ebp
	mov	ebp, esp
	sub	esp, 36					; 00000024H
	mov	DWORD PTR _this$[ebp], ecx

; 498  :    switch ( type_ )

	mov	eax, DWORD PTR _this$[ebp]
	mov	ecx, DWORD PTR [eax+8]
	shl	ecx, 24					; 00000018H
	sar	ecx, 24					; 00000018H
	mov	DWORD PTR tv67[ebp], ecx
	cmp	DWORD PTR tv67[ebp], 4
	je	SHORT $LN5@Value@3
	cmp	DWORD PTR tv67[ebp], 5
	jle	SHORT $LN7@Value@3
	cmp	DWORD PTR tv67[ebp], 7
	jle	SHORT $LN3@Value@3
	jmp	SHORT $LN7@Value@3

; 499  :    {
; 500  :    case nullValue:
; 501  :    case intValue:
; 502  :    case uintValue:
; 503  :    case realValue:
; 504  :    case booleanValue:
; 505  :       break;

	jmp	SHORT $LN7@Value@3
$LN5@Value@3:

; 506  :    case stringValue:
; 507  :       if ( allocated_ )

	mov	edx, DWORD PTR _this$[ebp]
	mov	eax, DWORD PTR [edx+8]
	shl	eax, 23					; 00000017H
	sar	eax, 31					; 0000001fH
	je	SHORT $LN4@Value@3

; 508  :          valueAllocator()->releaseStringValue( value_.string_ );

	call	?valueAllocator@Json@@YAAAPAVValueAllocator@1@XZ ; Json::valueAllocator
	mov	ecx, DWORD PTR [eax]
	mov	DWORD PTR tv75[ebp], ecx
	mov	edx, DWORD PTR _this$[ebp]
	mov	eax, DWORD PTR [edx]
	push	eax
	mov	ecx, DWORD PTR tv75[ebp]
	mov	edx, DWORD PTR [ecx]
	mov	ecx, DWORD PTR tv75[ebp]
	mov	eax, DWORD PTR [edx+16]
	call	eax
$LN4@Value@3:

; 509  :       break;

	jmp	SHORT $LN7@Value@3
$LN3@Value@3:

; 510  : #ifndef JSON_VALUE_USE_INTERNAL_MAP
; 511  :    case arrayValue:
; 512  :    case objectValue:
; 513  :       delete value_.map_;

	mov	ecx, DWORD PTR _this$[ebp]
	mov	edx, DWORD PTR [ecx]
	mov	DWORD PTR $T31143[ebp], edx
	mov	eax, DWORD PTR $T31143[ebp]
	mov	DWORD PTR $T31142[ebp], eax
	cmp	DWORD PTR $T31142[ebp], 0
	je	SHORT $LN11@Value@3
	push	1
	mov	ecx, DWORD PTR $T31142[ebp]
	call	??_G?$map@VCZString@Value@Json@@V23@U?$less@VCZString@Value@Json@@@std@@V?$allocator@U?$pair@$$CBVCZString@Value@Json@@V23@@std@@@5@@std@@QAEPAXI@Z
	mov	DWORD PTR tv83[ebp], eax
	jmp	SHORT $LN7@Value@3
$LN11@Value@3:
	mov	DWORD PTR tv83[ebp], 0
$LN7@Value@3:

; 514  :       break;
; 515  : #else
; 516  :    case arrayValue:
; 517  :       arrayAllocator()->destructArray( value_.array_ );
; 518  :       break;
; 519  :    case objectValue:
; 520  :       mapAllocator()->destructMap( value_.map_ );
; 521  :       break;
; 522  : #endif
; 523  :    default:
; 524  :       JSON_ASSERT_UNREACHABLE;
; 525  :    }
; 526  : 
; 527  :    if ( comments_ )

	mov	ecx, DWORD PTR _this$[ebp]
	cmp	DWORD PTR [ecx+12], 0
	je	SHORT $LN9@Value@3

; 528  :       delete[] comments_;

	mov	edx, DWORD PTR _this$[ebp]
	mov	eax, DWORD PTR [edx+12]
	mov	DWORD PTR $T31147[ebp], eax
	mov	ecx, DWORD PTR $T31147[ebp]
	mov	DWORD PTR $T31146[ebp], ecx
	cmp	DWORD PTR $T31146[ebp], 0
	je	SHORT $LN13@Value@3
	push	3
	mov	ecx, DWORD PTR $T31146[ebp]
	call	??_ECommentInfo@Value@Json@@QAEPAXI@Z
	mov	DWORD PTR tv94[ebp], eax
	jmp	SHORT $LN9@Value@3
$LN13@Value@3:
	mov	DWORD PTR tv94[ebp], 0
$LN9@Value@3:

; 529  : }

	mov	esp, ebp
	pop	ebp
	ret	0
??1Value@Json@@QAE@XZ ENDP				; Json::Value::~Value
_TEXT	ENDS
PUBLIC	??1?$map@VCZString@Value@Json@@V23@U?$less@VCZString@Value@Json@@@std@@V?$allocator@U?$pair@$$CBVCZString@Value@Json@@V23@@std@@@5@@std@@QAE@XZ ; std::map<Json::Value::CZString,Json::Value,std::less<Json::Value::CZString>,std::allocator<std::pair<Json::Value::CZString const ,Json::Value> > >::~map<Json::Value::CZString,Json::Value,std::less<Json::Value::CZString>,std::allocator<std::pair<Json::Value::CZString const ,Json::Value> > >
; Function compile flags: /Odtp
;	COMDAT ??_G?$map@VCZString@Value@Json@@V23@U?$less@VCZString@Value@Json@@@std@@V?$allocator@U?$pair@$$CBVCZString@Value@Json@@V23@@std@@@5@@std@@QAEPAXI@Z
_TEXT	SEGMENT
_this$ = -4						; size = 4
___flags$ = 8						; size = 4
??_G?$map@VCZString@Value@Json@@V23@U?$less@VCZString@Value@Json@@@std@@V?$allocator@U?$pair@$$CBVCZString@Value@Json@@V23@@std@@@5@@std@@QAEPAXI@Z PROC ; std::map<Json::Value::CZString,Json::Value,std::less<Json::Value::CZString>,std::allocator<std::pair<Json::Value::CZString const ,Json::Value> > >::`scalar deleting destructor', COMDAT
; _this$ = ecx
	push	ebp
	mov	ebp, esp
	push	ecx
	mov	DWORD PTR _this$[ebp], ecx
	mov	ecx, DWORD PTR _this$[ebp]
	call	??1?$map@VCZString@Value@Json@@V23@U?$less@VCZString@Value@Json@@@std@@V?$allocator@U?$pair@$$CBVCZString@Value@Json@@V23@@std@@@5@@std@@QAE@XZ
	mov	eax, DWORD PTR ___flags$[ebp]
	and	eax, 1
	je	SHORT $LN1@scalar@4
	mov	ecx, DWORD PTR _this$[ebp]
	push	ecx
	call	??3@YAXPAX@Z				; operator delete
	add	esp, 4
$LN1@scalar@4:
	mov	eax, DWORD PTR _this$[ebp]
	mov	esp, ebp
	pop	ebp
	ret	4
??_G?$map@VCZString@Value@Json@@V23@U?$less@VCZString@Value@Json@@@std@@V?$allocator@U?$pair@$$CBVCZString@Value@Json@@V23@@std@@@5@@std@@QAEPAXI@Z ENDP ; std::map<Json::Value::CZString,Json::Value,std::less<Json::Value::CZString>,std::allocator<std::pair<Json::Value::CZString const ,Json::Value> > >::`scalar deleting destructor'
_TEXT	ENDS
PUBLIC	??1?$_Tree@V?$_Tmap_traits@VCZString@Value@Json@@V23@U?$less@VCZString@Value@Json@@@std@@V?$allocator@U?$pair@$$CBVCZString@Value@Json@@V23@@std@@@5@$0A@@std@@@std@@QAE@XZ ; std::_Tree<std::_Tmap_traits<Json::Value::CZString,Json::Value,std::less<Json::Value::CZString>,std::allocator<std::pair<Json::Value::CZString const ,Json::Value> >,0> >::~_Tree<std::_Tmap_traits<Json::Value::CZString,Json::Value,std::less<Json::Value::CZString>,std::allocator<std::pair<Json::Value::CZString const ,Json::Value> >,0> >
; Function compile flags: /Odtp
;	COMDAT ??1?$map@VCZString@Value@Json@@V23@U?$less@VCZString@Value@Json@@@std@@V?$allocator@U?$pair@$$CBVCZString@Value@Json@@V23@@std@@@5@@std@@QAE@XZ
_TEXT	SEGMENT
_this$ = -4						; size = 4
??1?$map@VCZString@Value@Json@@V23@U?$less@VCZString@Value@Json@@@std@@V?$allocator@U?$pair@$$CBVCZString@Value@Json@@V23@@std@@@5@@std@@QAE@XZ PROC ; std::map<Json::Value::CZString,Json::Value,std::less<Json::Value::CZString>,std::allocator<std::pair<Json::Value::CZString const ,Json::Value> > >::~map<Json::Value::CZString,Json::Value,std::less<Json::Value::CZString>,std::allocator<std::pair<Json::Value::CZString const ,Json::Value> > >, COMDAT
; _this$ = ecx
	push	ebp
	mov	ebp, esp
	push	ecx
	mov	DWORD PTR _this$[ebp], ecx
	mov	ecx, DWORD PTR _this$[ebp]
	call	??1?$_Tree@V?$_Tmap_traits@VCZString@Value@Json@@V23@U?$less@VCZString@Value@Json@@@std@@V?$allocator@U?$pair@$$CBVCZString@Value@Json@@V23@@std@@@5@$0A@@std@@@std@@QAE@XZ ; std::_Tree<std::_Tmap_traits<Json::Value::CZString,Json::Value,std::less<Json::Value::CZString>,std::allocator<std::pair<Json::Value::CZString const ,Json::Value> >,0> >::~_Tree<std::_Tmap_traits<Json::Value::CZString,Json::Value,std::less<Json::Value::CZString>,std::allocator<std::pair<Json::Value::CZString const ,Json::Value> >,0> >
	mov	esp, ebp
	pop	ebp
	ret	0
??1?$map@VCZString@Value@Json@@V23@U?$less@VCZString@Value@Json@@@std@@V?$allocator@U?$pair@$$CBVCZString@Value@Json@@V23@@std@@@5@@std@@QAE@XZ ENDP ; std::map<Json::Value::CZString,Json::Value,std::less<Json::Value::CZString>,std::allocator<std::pair<Json::Value::CZString const ,Json::Value> > >::~map<Json::Value::CZString,Json::Value,std::less<Json::Value::CZString>,std::allocator<std::pair<Json::Value::CZString const ,Json::Value> > >
_TEXT	ENDS
PUBLIC	?swap@Value@Json@@QAEXAAV12@@Z			; Json::Value::swap
PUBLIC	??4Value@Json@@QAEAAV01@ABV01@@Z		; Json::Value::operator=
;	COMDAT xdata$x
xdata$x	SEGMENT
__unwindtable$??4Value@Json@@QAEAAV01@ABV01@@Z DD 0ffffffffH
	DD	FLAT:__unwindfunclet$??4Value@Json@@QAEAAV01@ABV01@@Z$0
__ehfuncinfo$??4Value@Json@@QAEAAV01@ABV01@@Z DD 019930522H
	DD	01H
	DD	FLAT:__unwindtable$??4Value@Json@@QAEAAV01@ABV01@@Z
	DD	2 DUP(00H)
	DD	2 DUP(00H)
	DD	00H
	DD	01H
; Function compile flags: /Odtp
xdata$x	ENDS
;	COMDAT ??4Value@Json@@QAEAAV01@ABV01@@Z
_TEXT	SEGMENT
_this$ = -36						; size = 4
$T31157 = -32						; size = 4
_temp$ = -28						; size = 16
__$EHRec$ = -12						; size = 12
_other$ = 8						; size = 4
??4Value@Json@@QAEAAV01@ABV01@@Z PROC			; Json::Value::operator=, COMDAT
; _this$ = ecx

; 533  : {

	push	ebp
	mov	ebp, esp
	push	-1
	push	__ehhandler$??4Value@Json@@QAEAAV01@ABV01@@Z
	mov	eax, DWORD PTR fs:0
	push	eax
	sub	esp, 24					; 00000018H
	mov	eax, DWORD PTR ___security_cookie
	xor	eax, ebp
	push	eax
	lea	eax, DWORD PTR __$EHRec$[ebp]
	mov	DWORD PTR fs:0, eax
	mov	DWORD PTR _this$[ebp], ecx

; 534  :    Value temp( other );

	mov	eax, DWORD PTR _other$[ebp]
	push	eax
	lea	ecx, DWORD PTR _temp$[ebp]
	call	??0Value@Json@@QAE@ABV01@@Z		; Json::Value::Value
	mov	DWORD PTR __$EHRec$[ebp+8], 0

; 535  :    swap( temp );

	lea	ecx, DWORD PTR _temp$[ebp]
	push	ecx
	mov	ecx, DWORD PTR _this$[ebp]
	call	?swap@Value@Json@@QAEXAAV12@@Z		; Json::Value::swap

; 536  :    return *this;

	mov	edx, DWORD PTR _this$[ebp]
	mov	DWORD PTR $T31157[ebp], edx
	mov	DWORD PTR __$EHRec$[ebp+8], -1
	lea	ecx, DWORD PTR _temp$[ebp]
	call	??1Value@Json@@QAE@XZ			; Json::Value::~Value
	mov	eax, DWORD PTR $T31157[ebp]

; 537  : }

	mov	ecx, DWORD PTR __$EHRec$[ebp]
	mov	DWORD PTR fs:0, ecx
	pop	ecx
	mov	esp, ebp
	pop	ebp
	ret	4
_TEXT	ENDS
;	COMDAT text$x
text$x	SEGMENT
__unwindfunclet$??4Value@Json@@QAEAAV01@ABV01@@Z$0:
	lea	ecx, DWORD PTR _temp$[ebp]
	jmp	??1Value@Json@@QAE@XZ			; Json::Value::~Value
__ehhandler$??4Value@Json@@QAEAAV01@ABV01@@Z:
	mov	edx, DWORD PTR [esp+8]
	lea	eax, DWORD PTR [edx+12]
	mov	ecx, DWORD PTR [edx-28]
	xor	ecx, eax
	call	@__security_check_cookie@4
	mov	eax, OFFSET __ehfuncinfo$??4Value@Json@@QAEAAV01@ABV01@@Z
	jmp	___CxxFrameHandler3
text$x	ENDS
??4Value@Json@@QAEAAV01@ABV01@@Z ENDP			; Json::Value::operator=
PUBLIC	??$swap@TValueHolder@Value@Json@@@std@@YAXAATValueHolder@Value@Json@@0@Z ; std::swap<Json::Value::ValueHolder>
; Function compile flags: /Odtp
;	COMDAT ?swap@Value@Json@@QAEXAAV12@@Z
_TEXT	SEGMENT
_this$ = -12						; size = 4
_temp2$ = -8						; size = 4
_temp$ = -4						; size = 4
_other$ = 8						; size = 4
?swap@Value@Json@@QAEXAAV12@@Z PROC			; Json::Value::swap, COMDAT
; _this$ = ecx

; 541  : {

	push	ebp
	mov	ebp, esp
	sub	esp, 12					; 0000000cH
	mov	DWORD PTR _this$[ebp], ecx

; 542  :    ValueType temp = type_;

	mov	eax, DWORD PTR _this$[ebp]
	mov	ecx, DWORD PTR [eax+8]
	shl	ecx, 24					; 00000018H
	sar	ecx, 24					; 00000018H
	mov	DWORD PTR _temp$[ebp], ecx

; 543  :    type_ = other.type_;

	mov	edx, DWORD PTR _other$[ebp]
	mov	eax, DWORD PTR [edx+8]
	shl	eax, 24					; 00000018H
	sar	eax, 24					; 00000018H
	and	eax, 255				; 000000ffH
	mov	ecx, DWORD PTR _this$[ebp]
	mov	edx, DWORD PTR [ecx+8]
	and	edx, -256				; ffffff00H
	or	edx, eax
	mov	eax, DWORD PTR _this$[ebp]
	mov	DWORD PTR [eax+8], edx

; 544  :    other.type_ = temp;

	mov	ecx, DWORD PTR _temp$[ebp]
	and	ecx, 255				; 000000ffH
	mov	edx, DWORD PTR _other$[ebp]
	mov	eax, DWORD PTR [edx+8]
	and	eax, -256				; ffffff00H
	or	eax, ecx
	mov	ecx, DWORD PTR _other$[ebp]
	mov	DWORD PTR [ecx+8], eax

; 545  :    std::swap( value_, other.value_ );

	mov	edx, DWORD PTR _other$[ebp]
	push	edx
	mov	eax, DWORD PTR _this$[ebp]
	push	eax
	call	??$swap@TValueHolder@Value@Json@@@std@@YAXAATValueHolder@Value@Json@@0@Z ; std::swap<Json::Value::ValueHolder>
	add	esp, 8

; 546  :    int temp2 = allocated_;

	mov	ecx, DWORD PTR _this$[ebp]
	mov	edx, DWORD PTR [ecx+8]
	shl	edx, 23					; 00000017H
	sar	edx, 31					; 0000001fH
	mov	DWORD PTR _temp2$[ebp], edx

; 547  :    allocated_ = other.allocated_;

	mov	eax, DWORD PTR _other$[ebp]
	mov	ecx, DWORD PTR [eax+8]
	shl	ecx, 23					; 00000017H
	sar	ecx, 31					; 0000001fH
	and	ecx, 1
	shl	ecx, 8
	mov	edx, DWORD PTR _this$[ebp]
	mov	eax, DWORD PTR [edx+8]
	and	eax, -257				; fffffeffH
	or	eax, ecx
	mov	ecx, DWORD PTR _this$[ebp]
	mov	DWORD PTR [ecx+8], eax

; 548  :    other.allocated_ = temp2;

	mov	edx, DWORD PTR _temp2$[ebp]
	and	edx, 1
	shl	edx, 8
	mov	eax, DWORD PTR _other$[ebp]
	mov	ecx, DWORD PTR [eax+8]
	and	ecx, -257				; fffffeffH
	or	ecx, edx
	mov	edx, DWORD PTR _other$[ebp]
	mov	DWORD PTR [edx+8], ecx

; 549  : }

	mov	esp, ebp
	pop	ebp
	ret	4
?swap@Value@Json@@QAEXAAV12@@Z ENDP			; Json::Value::swap
_TEXT	ENDS
PUBLIC	?type@Value@Json@@QBE?AW4ValueType@2@XZ		; Json::Value::type
; Function compile flags: /Odtp
;	COMDAT ?type@Value@Json@@QBE?AW4ValueType@2@XZ
_TEXT	SEGMENT
_this$ = -4						; size = 4
?type@Value@Json@@QBE?AW4ValueType@2@XZ PROC		; Json::Value::type, COMDAT
; _this$ = ecx

; 553  : {

	push	ebp
	mov	ebp, esp
	push	ecx
	mov	DWORD PTR _this$[ebp], ecx

; 554  :    return type_;

	mov	eax, DWORD PTR _this$[ebp]
	mov	eax, DWORD PTR [eax+8]
	shl	eax, 24					; 00000018H
	sar	eax, 24					; 00000018H

; 555  : }

	mov	esp, ebp
	pop	ebp
	ret	0
?type@Value@Json@@QBE?AW4ValueType@2@XZ ENDP		; Json::Value::type
_TEXT	ENDS
PUBLIC	?compare@Value@Json@@QAEHABV12@@Z		; Json::Value::compare
; Function compile flags: /Odtp
;	COMDAT ?compare@Value@Json@@QAEHABV12@@Z
_TEXT	SEGMENT
_this$ = -4						; size = 4
_other$ = 8						; size = 4
?compare@Value@Json@@QAEHABV12@@Z PROC			; Json::Value::compare, COMDAT
; _this$ = ecx

; 560  : {

	push	ebp
	mov	ebp, esp
	push	ecx
	mov	DWORD PTR _this$[ebp], ecx

; 561  :    /*
; 562  :    int typeDelta = other.type_ - type_;
; 563  :    switch ( type_ )
; 564  :    {
; 565  :    case nullValue:
; 566  : 
; 567  :       return other.type_ == type_;
; 568  :    case intValue:
; 569  :       if ( other.type_.isNumeric()
; 570  :    case uintValue:
; 571  :    case realValue:
; 572  :    case booleanValue:
; 573  :       break;
; 574  :    case stringValue,
; 575  :       break;
; 576  :    case arrayValue:
; 577  :       delete value_.array_;
; 578  :       break;
; 579  :    case objectValue:
; 580  :       delete value_.map_;
; 581  :    default:
; 582  :       JSON_ASSERT_UNREACHABLE;
; 583  :    }
; 584  :    */
; 585  :    return 0;  // unreachable

	xor	eax, eax

; 586  : }

	mov	esp, ebp
	pop	ebp
	ret	4
?compare@Value@Json@@QAEHABV12@@Z ENDP			; Json::Value::compare
_TEXT	ENDS
PUBLIC	??$?MV?$_Tmap_traits@VCZString@Value@Json@@V23@U?$less@VCZString@Value@Json@@@std@@V?$allocator@U?$pair@$$CBVCZString@Value@Json@@V23@@std@@@5@$0A@@std@@@std@@YA_NABV?$_Tree@V?$_Tmap_traits@VCZString@Value@Json@@V23@U?$less@VCZString@Value@Json@@@std@@V?$allocator@U?$pair@$$CBVCZString@Value@Json@@V23@@std@@@5@$0A@@std@@@0@0@Z ; std::operator<<std::_Tmap_traits<Json::Value::CZString,Json::Value,std::less<Json::Value::CZString>,std::allocator<std::pair<Json::Value::CZString const ,Json::Value> >,0> >
PUBLIC	?size@?$_Tree@V?$_Tmap_traits@VCZString@Value@Json@@V23@U?$less@VCZString@Value@Json@@@std@@V?$allocator@U?$pair@$$CBVCZString@Value@Json@@V23@@std@@@5@$0A@@std@@@std@@QBEIXZ ; std::_Tree<std::_Tmap_traits<Json::Value::CZString,Json::Value,std::less<Json::Value::CZString>,std::allocator<std::pair<Json::Value::CZString const ,Json::Value> >,0> >::size
PUBLIC	??MValue@Json@@QBE_NABV01@@Z			; Json::Value::operator<
; Function compile flags: /Odtp
;	COMDAT ??MValue@Json@@QBE_NABV01@@Z
_TEXT	SEGMENT
tv133 = -68						; size = 4
tv129 = -64						; size = 4
tv218 = -60						; size = 4
tv213 = -54						; size = 1
tv206 = -53						; size = 1
tv200 = -52						; size = 4
tv202 = -48						; size = 4
tv85 = -44						; size = 4
tv82 = -40						; size = 4
tv173 = -36						; size = 4
tv172 = -32						; size = 4
tv79 = -28						; size = 4
tv160 = -24						; size = 4
tv159 = -20						; size = 4
tv77 = -16						; size = 4
_this$ = -12						; size = 4
_delta$21259 = -8					; size = 4
_typeDelta$ = -4					; size = 4
_other$ = 8						; size = 4
??MValue@Json@@QBE_NABV01@@Z PROC			; Json::Value::operator<, COMDAT
; _this$ = ecx

; 590  : {

	push	ebp
	mov	ebp, esp
	sub	esp, 68					; 00000044H
	push	esi
	mov	DWORD PTR _this$[ebp], ecx

; 591  :    int typeDelta = type_ - other.type_;

	mov	eax, DWORD PTR _this$[ebp]
	mov	ecx, DWORD PTR [eax+8]
	shl	ecx, 24					; 00000018H
	sar	ecx, 24					; 00000018H
	mov	edx, DWORD PTR _other$[ebp]
	mov	eax, DWORD PTR [edx+8]
	shl	eax, 24					; 00000018H
	sar	eax, 24					; 00000018H
	sub	ecx, eax
	mov	DWORD PTR _typeDelta$[ebp], ecx

; 592  :    if ( typeDelta )

	je	SHORT $LN12@operator@3

; 593  :       return typeDelta < 0 ? true : false;

	cmp	DWORD PTR _typeDelta$[ebp], 0
	setl	al
	jmp	$LN13@operator@3
$LN12@operator@3:

; 594  :    switch ( type_ )

	mov	ecx, DWORD PTR _this$[ebp]
	mov	edx, DWORD PTR [ecx+8]
	shl	edx, 24					; 00000018H
	sar	edx, 24					; 00000018H
	mov	DWORD PTR tv77[ebp], edx
	cmp	DWORD PTR tv77[ebp], 7
	ja	$LN1@operator@3
	mov	eax, DWORD PTR tv77[ebp]
	jmp	DWORD PTR $LN31@operator@3[eax*4]
$LN9@operator@3:

; 595  :    {
; 596  :    case nullValue:
; 597  :       return false;

	xor	al, al
	jmp	$LN13@operator@3
$LN8@operator@3:

; 598  :    case intValue:
; 599  :       return value_.int_ < other.value_.int_;

	mov	ecx, DWORD PTR _this$[ebp]
	mov	edx, DWORD PTR _other$[ebp]
	mov	DWORD PTR tv159[ebp], ecx
	mov	DWORD PTR tv160[ebp], edx
	mov	eax, DWORD PTR tv159[ebp]
	mov	ecx, DWORD PTR tv160[ebp]
	mov	edx, DWORD PTR [eax+4]
	cmp	edx, DWORD PTR [ecx+4]
	jg	SHORT $LN15@operator@3
	jl	SHORT $LN25@operator@3
	mov	eax, DWORD PTR tv159[ebp]
	mov	ecx, DWORD PTR tv160[ebp]
	mov	edx, DWORD PTR [eax]
	cmp	edx, DWORD PTR [ecx]
	jae	SHORT $LN15@operator@3
$LN25@operator@3:
	mov	DWORD PTR tv79[ebp], 1
	jmp	SHORT $LN16@operator@3
$LN15@operator@3:
	mov	DWORD PTR tv79[ebp], 0
$LN16@operator@3:
	mov	al, BYTE PTR tv79[ebp]
	jmp	$LN13@operator@3
$LN7@operator@3:

; 600  :    case uintValue:
; 601  :       return value_.uint_ < other.value_.uint_;

	mov	eax, DWORD PTR _this$[ebp]
	mov	ecx, DWORD PTR _other$[ebp]
	mov	DWORD PTR tv172[ebp], eax
	mov	DWORD PTR tv173[ebp], ecx
	mov	edx, DWORD PTR tv172[ebp]
	mov	eax, DWORD PTR tv173[ebp]
	mov	ecx, DWORD PTR [edx+4]
	cmp	ecx, DWORD PTR [eax+4]
	ja	SHORT $LN17@operator@3
	jb	SHORT $LN26@operator@3
	mov	edx, DWORD PTR tv172[ebp]
	mov	eax, DWORD PTR tv173[ebp]
	mov	ecx, DWORD PTR [edx]
	cmp	ecx, DWORD PTR [eax]
	jae	SHORT $LN17@operator@3
$LN26@operator@3:
	mov	DWORD PTR tv82[ebp], 1
	jmp	SHORT $LN18@operator@3
$LN17@operator@3:
	mov	DWORD PTR tv82[ebp], 0
$LN18@operator@3:
	mov	al, BYTE PTR tv82[ebp]
	jmp	$LN13@operator@3
$LN6@operator@3:

; 602  :    case realValue:
; 603  :       return value_.real_ < other.value_.real_;

	mov	edx, DWORD PTR _this$[ebp]
	mov	eax, DWORD PTR _other$[ebp]
	fld	QWORD PTR [eax]
	fcomp	QWORD PTR [edx]
	fnstsw	ax
	test	ah, 65					; 00000041H
	jne	SHORT $LN19@operator@3
	mov	DWORD PTR tv85[ebp], 1
	jmp	SHORT $LN20@operator@3
$LN19@operator@3:
	mov	DWORD PTR tv85[ebp], 0
$LN20@operator@3:
	mov	al, BYTE PTR tv85[ebp]
	jmp	$LN13@operator@3
$LN5@operator@3:

; 604  :    case booleanValue:
; 605  :       return value_.bool_ < other.value_.bool_;

	mov	ecx, DWORD PTR _this$[ebp]
	movzx	edx, BYTE PTR [ecx]
	mov	eax, DWORD PTR _other$[ebp]
	movzx	ecx, BYTE PTR [eax]
	xor	eax, eax
	cmp	edx, ecx
	setl	al
	jmp	$LN13@operator@3
$LN4@operator@3:

; 606  :    case stringValue:
; 607  :       return ( value_.string_ == 0  &&  other.value_.string_ )
; 608  :              || ( other.value_.string_  
; 609  :                   &&  value_.string_  
; 610  :                   && strcmp( value_.string_, other.value_.string_ ) < 0 );

	mov	edx, DWORD PTR _this$[ebp]
	cmp	DWORD PTR [edx], 0
	jne	SHORT $LN21@operator@3
	mov	eax, DWORD PTR _other$[ebp]
	cmp	DWORD PTR [eax], 0
	jne	SHORT $LN23@operator@3
$LN21@operator@3:
	mov	ecx, DWORD PTR _other$[ebp]
	cmp	DWORD PTR [ecx], 0
	je	SHORT $LN22@operator@3
	mov	edx, DWORD PTR _this$[ebp]
	cmp	DWORD PTR [edx], 0
	je	SHORT $LN22@operator@3
	mov	eax, DWORD PTR _other$[ebp]
	mov	ecx, DWORD PTR [eax]
	mov	DWORD PTR tv202[ebp], ecx
	mov	edx, DWORD PTR _this$[ebp]
	mov	eax, DWORD PTR [edx]
	mov	DWORD PTR tv200[ebp], eax
$LL27@operator@3:
	mov	ecx, DWORD PTR tv200[ebp]
	mov	dl, BYTE PTR [ecx]
	mov	BYTE PTR tv206[ebp], dl
	mov	eax, DWORD PTR tv202[ebp]
	cmp	dl, BYTE PTR [eax]
	jne	SHORT $LN28@operator@3
	cmp	BYTE PTR tv206[ebp], 0
	je	SHORT $LN29@operator@3
	mov	ecx, DWORD PTR tv200[ebp]
	mov	dl, BYTE PTR [ecx+1]
	mov	BYTE PTR tv213[ebp], dl
	mov	eax, DWORD PTR tv202[ebp]
	cmp	dl, BYTE PTR [eax+1]
	jne	SHORT $LN28@operator@3
	add	DWORD PTR tv200[ebp], 2
	add	DWORD PTR tv202[ebp], 2
	cmp	BYTE PTR tv213[ebp], 0
	jne	SHORT $LL27@operator@3
$LN29@operator@3:
	mov	DWORD PTR tv218[ebp], 0
	jmp	SHORT $LN30@operator@3
$LN28@operator@3:
	sbb	ecx, ecx
	sbb	ecx, -1
	mov	DWORD PTR tv218[ebp], ecx
$LN30@operator@3:
	mov	edx, DWORD PTR tv218[ebp]
	mov	DWORD PTR tv129[ebp], edx
	cmp	DWORD PTR tv129[ebp], 0
	jl	SHORT $LN23@operator@3
$LN22@operator@3:
	mov	DWORD PTR tv133[ebp], 0
	jmp	SHORT $LN24@operator@3
$LN23@operator@3:
	mov	DWORD PTR tv133[ebp], 1
$LN24@operator@3:
	mov	al, BYTE PTR tv133[ebp]
	jmp	SHORT $LN13@operator@3
$LN3@operator@3:

; 611  : #ifndef JSON_VALUE_USE_INTERNAL_MAP
; 612  :    case arrayValue:
; 613  :    case objectValue:
; 614  :       {
; 615  :          int delta = int( value_.map_->size() - other.value_.map_->size() );

	mov	eax, DWORD PTR _this$[ebp]
	mov	ecx, DWORD PTR [eax]
	call	?size@?$_Tree@V?$_Tmap_traits@VCZString@Value@Json@@V23@U?$less@VCZString@Value@Json@@@std@@V?$allocator@U?$pair@$$CBVCZString@Value@Json@@V23@@std@@@5@$0A@@std@@@std@@QBEIXZ ; std::_Tree<std::_Tmap_traits<Json::Value::CZString,Json::Value,std::less<Json::Value::CZString>,std::allocator<std::pair<Json::Value::CZString const ,Json::Value> >,0> >::size
	mov	esi, eax
	mov	ecx, DWORD PTR _other$[ebp]
	mov	ecx, DWORD PTR [ecx]
	call	?size@?$_Tree@V?$_Tmap_traits@VCZString@Value@Json@@V23@U?$less@VCZString@Value@Json@@@std@@V?$allocator@U?$pair@$$CBVCZString@Value@Json@@V23@@std@@@5@$0A@@std@@@std@@QBEIXZ ; std::_Tree<std::_Tmap_traits<Json::Value::CZString,Json::Value,std::less<Json::Value::CZString>,std::allocator<std::pair<Json::Value::CZString const ,Json::Value> >,0> >::size
	sub	esi, eax
	mov	DWORD PTR _delta$21259[ebp], esi

; 616  :          if ( delta )

	je	SHORT $LN2@operator@3

; 617  :             return delta < 0;

	xor	eax, eax
	cmp	DWORD PTR _delta$21259[ebp], 0
	setl	al
	jmp	SHORT $LN13@operator@3
$LN2@operator@3:

; 618  :          return (*value_.map_) < (*other.value_.map_);

	mov	edx, DWORD PTR _other$[ebp]
	mov	eax, DWORD PTR [edx]
	push	eax
	mov	ecx, DWORD PTR _this$[ebp]
	mov	edx, DWORD PTR [ecx]
	push	edx
	call	??$?MV?$_Tmap_traits@VCZString@Value@Json@@V23@U?$less@VCZString@Value@Json@@@std@@V?$allocator@U?$pair@$$CBVCZString@Value@Json@@V23@@std@@@5@$0A@@std@@@std@@YA_NABV?$_Tree@V?$_Tmap_traits@VCZString@Value@Json@@V23@U?$less@VCZString@Value@Json@@@std@@V?$allocator@U?$pair@$$CBVCZString@Value@Json@@V23@@std@@@5@$0A@@std@@@0@0@Z ; std::operator<<std::_Tmap_traits<Json::Value::CZString,Json::Value,std::less<Json::Value::CZString>,std::allocator<std::pair<Json::Value::CZString const ,Json::Value> >,0> >
	add	esp, 8
	jmp	SHORT $LN13@operator@3
$LN1@operator@3:

; 619  :       }
; 620  : #else
; 621  :    case arrayValue:
; 622  :       return value_.array_->compare( *(other.value_.array_) ) < 0;
; 623  :    case objectValue:
; 624  :       return value_.map_->compare( *(other.value_.map_) ) < 0;
; 625  : #endif
; 626  :    default:
; 627  :       JSON_ASSERT_UNREACHABLE;
; 628  :    }
; 629  :    return 0;  // unreachable

	xor	al, al
$LN13@operator@3:

; 630  : }

	pop	esi
	mov	esp, ebp
	pop	ebp
	ret	4
	npad	3
$LN31@operator@3:
	DD	$LN9@operator@3
	DD	$LN8@operator@3
	DD	$LN7@operator@3
	DD	$LN6@operator@3
	DD	$LN4@operator@3
	DD	$LN5@operator@3
	DD	$LN3@operator@3
	DD	$LN3@operator@3
??MValue@Json@@QBE_NABV01@@Z ENDP			; Json::Value::operator<
_TEXT	ENDS
PUBLIC	??OValue@Json@@QBE_NABV01@@Z			; Json::Value::operator>
PUBLIC	??NValue@Json@@QBE_NABV01@@Z			; Json::Value::operator<=
; Function compile flags: /Odtp
;	COMDAT ??NValue@Json@@QBE_NABV01@@Z
_TEXT	SEGMENT
_this$ = -4						; size = 4
_other$ = 8						; size = 4
??NValue@Json@@QBE_NABV01@@Z PROC			; Json::Value::operator<=, COMDAT
; _this$ = ecx

; 634  : {

	push	ebp
	mov	ebp, esp
	push	ecx
	mov	DWORD PTR _this$[ebp], ecx

; 635  :    return !(other > *this);

	mov	eax, DWORD PTR _this$[ebp]
	push	eax
	mov	ecx, DWORD PTR _other$[ebp]
	call	??OValue@Json@@QBE_NABV01@@Z		; Json::Value::operator>
	movzx	eax, al
	neg	eax
	sbb	eax, eax
	add	eax, 1

; 636  : }

	mov	esp, ebp
	pop	ebp
	ret	4
??NValue@Json@@QBE_NABV01@@Z ENDP			; Json::Value::operator<=
_TEXT	ENDS
PUBLIC	??PValue@Json@@QBE_NABV01@@Z			; Json::Value::operator>=
; Function compile flags: /Odtp
;	COMDAT ??PValue@Json@@QBE_NABV01@@Z
_TEXT	SEGMENT
_this$ = -4						; size = 4
_other$ = 8						; size = 4
??PValue@Json@@QBE_NABV01@@Z PROC			; Json::Value::operator>=, COMDAT
; _this$ = ecx

; 640  : {

	push	ebp
	mov	ebp, esp
	push	ecx
	mov	DWORD PTR _this$[ebp], ecx

; 641  :    return !(*this < other);

	mov	eax, DWORD PTR _other$[ebp]
	push	eax
	mov	ecx, DWORD PTR _this$[ebp]
	call	??MValue@Json@@QBE_NABV01@@Z		; Json::Value::operator<
	movzx	eax, al
	neg	eax
	sbb	eax, eax
	add	eax, 1

; 642  : }

	mov	esp, ebp
	pop	ebp
	ret	4
??PValue@Json@@QBE_NABV01@@Z ENDP			; Json::Value::operator>=
; Function compile flags: /Odtp
_TEXT	ENDS
;	COMDAT ??OValue@Json@@QBE_NABV01@@Z
_TEXT	SEGMENT
_this$ = -4						; size = 4
_other$ = 8						; size = 4
??OValue@Json@@QBE_NABV01@@Z PROC			; Json::Value::operator>, COMDAT
; _this$ = ecx

; 646  : {

	push	ebp
	mov	ebp, esp
	push	ecx
	mov	DWORD PTR _this$[ebp], ecx

; 647  :    return other < *this;

	mov	eax, DWORD PTR _this$[ebp]
	push	eax
	mov	ecx, DWORD PTR _other$[ebp]
	call	??MValue@Json@@QBE_NABV01@@Z		; Json::Value::operator<

; 648  : }

	mov	esp, ebp
	pop	ebp
	ret	4
??OValue@Json@@QBE_NABV01@@Z ENDP			; Json::Value::operator>
_TEXT	ENDS
PUBLIC	??$?8V?$_Tmap_traits@VCZString@Value@Json@@V23@U?$less@VCZString@Value@Json@@@std@@V?$allocator@U?$pair@$$CBVCZString@Value@Json@@V23@@std@@@5@$0A@@std@@@std@@YA_NABV?$_Tree@V?$_Tmap_traits@VCZString@Value@Json@@V23@U?$less@VCZString@Value@Json@@@std@@V?$allocator@U?$pair@$$CBVCZString@Value@Json@@V23@@std@@@5@$0A@@std@@@0@0@Z ; std::operator==<std::_Tmap_traits<Json::Value::CZString,Json::Value,std::less<Json::Value::CZString>,std::allocator<std::pair<Json::Value::CZString const ,Json::Value> >,0> >
PUBLIC	??8Value@Json@@QBE_NABV01@@Z			; Json::Value::operator==
; Function compile flags: /Odtp
;	COMDAT ??8Value@Json@@QBE_NABV01@@Z
_TEXT	SEGMENT
tv141 = -68						; size = 4
tv129 = -64						; size = 4
tv93 = -60						; size = 4
tv213 = -56						; size = 4
tv208 = -50						; size = 1
tv201 = -49						; size = 1
tv195 = -48						; size = 4
tv197 = -44						; size = 4
tv82 = -40						; size = 4
tv79 = -36						; size = 4
tv168 = -32						; size = 4
tv167 = -28						; size = 4
tv76 = -24						; size = 4
tv156 = -20						; size = 4
tv155 = -16						; size = 4
tv74 = -12						; size = 4
_this$ = -8						; size = 4
_temp$ = -4						; size = 4
_other$ = 8						; size = 4
??8Value@Json@@QBE_NABV01@@Z PROC			; Json::Value::operator==, COMDAT
; _this$ = ecx

; 652  : {

	push	ebp
	mov	ebp, esp
	sub	esp, 68					; 00000044H
	push	esi
	mov	DWORD PTR _this$[ebp], ecx

; 653  :    //if ( type_ != other.type_ )
; 654  :    // GCC 2.95.3 says:
; 655  :    // attempt to take address of bit-field structure member `Json::Value::type_'
; 656  :    // Beats me, but a temp solves the problem.
; 657  :    int temp = other.type_;

	mov	eax, DWORD PTR _other$[ebp]
	mov	ecx, DWORD PTR [eax+8]
	shl	ecx, 24					; 00000018H
	sar	ecx, 24					; 00000018H
	mov	DWORD PTR _temp$[ebp], ecx

; 658  :    if ( type_ != temp )

	mov	edx, DWORD PTR _this$[ebp]
	mov	eax, DWORD PTR [edx+8]
	shl	eax, 24					; 00000018H
	sar	eax, 24					; 00000018H
	cmp	eax, DWORD PTR _temp$[ebp]
	je	SHORT $LN11@operator@4

; 659  :       return false;

	xor	al, al
	jmp	$LN12@operator@4
$LN11@operator@4:

; 660  :    switch ( type_ )

	mov	ecx, DWORD PTR _this$[ebp]
	mov	edx, DWORD PTR [ecx+8]
	shl	edx, 24					; 00000018H
	sar	edx, 24					; 00000018H
	mov	DWORD PTR tv74[ebp], edx
	cmp	DWORD PTR tv74[ebp], 7
	ja	$LN1@operator@4
	mov	eax, DWORD PTR tv74[ebp]
	jmp	DWORD PTR $LN29@operator@4[eax*4]
$LN8@operator@4:

; 661  :    {
; 662  :    case nullValue:
; 663  :       return true;

	mov	al, 1
	jmp	$LN12@operator@4
$LN7@operator@4:

; 664  :    case intValue:
; 665  :       return value_.int_ == other.value_.int_;

	mov	ecx, DWORD PTR _this$[ebp]
	mov	edx, DWORD PTR _other$[ebp]
	mov	DWORD PTR tv155[ebp], ecx
	mov	DWORD PTR tv156[ebp], edx
	mov	eax, DWORD PTR tv155[ebp]
	mov	ecx, DWORD PTR tv156[ebp]
	mov	edx, DWORD PTR [eax]
	cmp	edx, DWORD PTR [ecx]
	jne	SHORT $LN14@operator@4
	mov	eax, DWORD PTR tv155[ebp]
	mov	ecx, DWORD PTR tv156[ebp]
	mov	edx, DWORD PTR [eax+4]
	cmp	edx, DWORD PTR [ecx+4]
	jne	SHORT $LN14@operator@4
	mov	DWORD PTR tv76[ebp], 1
	jmp	SHORT $LN15@operator@4
$LN14@operator@4:
	mov	DWORD PTR tv76[ebp], 0
$LN15@operator@4:
	mov	al, BYTE PTR tv76[ebp]
	jmp	$LN12@operator@4
$LN6@operator@4:

; 666  :    case uintValue:
; 667  :       return value_.uint_ == other.value_.uint_;

	mov	eax, DWORD PTR _this$[ebp]
	mov	ecx, DWORD PTR _other$[ebp]
	mov	DWORD PTR tv167[ebp], eax
	mov	DWORD PTR tv168[ebp], ecx
	mov	edx, DWORD PTR tv167[ebp]
	mov	eax, DWORD PTR tv168[ebp]
	mov	ecx, DWORD PTR [edx]
	cmp	ecx, DWORD PTR [eax]
	jne	SHORT $LN16@operator@4
	mov	edx, DWORD PTR tv167[ebp]
	mov	eax, DWORD PTR tv168[ebp]
	mov	ecx, DWORD PTR [edx+4]
	cmp	ecx, DWORD PTR [eax+4]
	jne	SHORT $LN16@operator@4
	mov	DWORD PTR tv79[ebp], 1
	jmp	SHORT $LN17@operator@4
$LN16@operator@4:
	mov	DWORD PTR tv79[ebp], 0
$LN17@operator@4:
	mov	al, BYTE PTR tv79[ebp]
	jmp	$LN12@operator@4
$LN5@operator@4:

; 668  :    case realValue:
; 669  :       return value_.real_ == other.value_.real_;

	mov	edx, DWORD PTR _this$[ebp]
	mov	eax, DWORD PTR _other$[ebp]
	fld	QWORD PTR [eax]
	fcomp	QWORD PTR [edx]
	fnstsw	ax
	test	ah, 68					; 00000044H
	jp	SHORT $LN18@operator@4
	mov	DWORD PTR tv82[ebp], 1
	jmp	SHORT $LN19@operator@4
$LN18@operator@4:
	mov	DWORD PTR tv82[ebp], 0
$LN19@operator@4:
	mov	al, BYTE PTR tv82[ebp]
	jmp	$LN12@operator@4
$LN4@operator@4:

; 670  :    case booleanValue:
; 671  :       return value_.bool_ == other.value_.bool_;

	mov	ecx, DWORD PTR _this$[ebp]
	movzx	edx, BYTE PTR [ecx]
	mov	eax, DWORD PTR _other$[ebp]
	movzx	ecx, BYTE PTR [eax]
	xor	eax, eax
	cmp	edx, ecx
	sete	al
	jmp	$LN12@operator@4
$LN3@operator@4:

; 672  :    case stringValue:
; 673  :       return ( value_.string_ == other.value_.string_ )
; 674  :              || ( other.value_.string_  
; 675  :                   &&  value_.string_  
; 676  :                   && strcmp( value_.string_, other.value_.string_ ) == 0 );

	mov	edx, DWORD PTR _this$[ebp]
	mov	eax, DWORD PTR _other$[ebp]
	mov	ecx, DWORD PTR [edx]
	cmp	ecx, DWORD PTR [eax]
	je	SHORT $LN21@operator@4
	mov	edx, DWORD PTR _other$[ebp]
	cmp	DWORD PTR [edx], 0
	je	SHORT $LN20@operator@4
	mov	eax, DWORD PTR _this$[ebp]
	cmp	DWORD PTR [eax], 0
	je	SHORT $LN20@operator@4
	mov	ecx, DWORD PTR _other$[ebp]
	mov	edx, DWORD PTR [ecx]
	mov	DWORD PTR tv197[ebp], edx
	mov	eax, DWORD PTR _this$[ebp]
	mov	ecx, DWORD PTR [eax]
	mov	DWORD PTR tv195[ebp], ecx
$LL25@operator@4:
	mov	edx, DWORD PTR tv195[ebp]
	mov	al, BYTE PTR [edx]
	mov	BYTE PTR tv201[ebp], al
	mov	ecx, DWORD PTR tv197[ebp]
	cmp	al, BYTE PTR [ecx]
	jne	SHORT $LN26@operator@4
	cmp	BYTE PTR tv201[ebp], 0
	je	SHORT $LN27@operator@4
	mov	edx, DWORD PTR tv195[ebp]
	mov	al, BYTE PTR [edx+1]
	mov	BYTE PTR tv208[ebp], al
	mov	ecx, DWORD PTR tv197[ebp]
	cmp	al, BYTE PTR [ecx+1]
	jne	SHORT $LN26@operator@4
	add	DWORD PTR tv195[ebp], 2
	add	DWORD PTR tv197[ebp], 2
	cmp	BYTE PTR tv208[ebp], 0
	jne	SHORT $LL25@operator@4
$LN27@operator@4:
	mov	DWORD PTR tv213[ebp], 0
	jmp	SHORT $LN28@operator@4
$LN26@operator@4:
	sbb	edx, edx
	sbb	edx, -1
	mov	DWORD PTR tv213[ebp], edx
$LN28@operator@4:
	mov	eax, DWORD PTR tv213[ebp]
	mov	DWORD PTR tv93[ebp], eax
	cmp	DWORD PTR tv93[ebp], 0
	je	SHORT $LN21@operator@4
$LN20@operator@4:
	mov	DWORD PTR tv129[ebp], 0
	jmp	SHORT $LN22@operator@4
$LN21@operator@4:
	mov	DWORD PTR tv129[ebp], 1
$LN22@operator@4:
	mov	al, BYTE PTR tv129[ebp]
	jmp	SHORT $LN12@operator@4
$LN2@operator@4:

; 677  : #ifndef JSON_VALUE_USE_INTERNAL_MAP
; 678  :    case arrayValue:
; 679  :    case objectValue:
; 680  :       return value_.map_->size() == other.value_.map_->size()
; 681  :              && (*value_.map_) == (*other.value_.map_);

	mov	ecx, DWORD PTR _this$[ebp]
	mov	ecx, DWORD PTR [ecx]
	call	?size@?$_Tree@V?$_Tmap_traits@VCZString@Value@Json@@V23@U?$less@VCZString@Value@Json@@@std@@V?$allocator@U?$pair@$$CBVCZString@Value@Json@@V23@@std@@@5@$0A@@std@@@std@@QBEIXZ ; std::_Tree<std::_Tmap_traits<Json::Value::CZString,Json::Value,std::less<Json::Value::CZString>,std::allocator<std::pair<Json::Value::CZString const ,Json::Value> >,0> >::size
	mov	esi, eax
	mov	edx, DWORD PTR _other$[ebp]
	mov	ecx, DWORD PTR [edx]
	call	?size@?$_Tree@V?$_Tmap_traits@VCZString@Value@Json@@V23@U?$less@VCZString@Value@Json@@@std@@V?$allocator@U?$pair@$$CBVCZString@Value@Json@@V23@@std@@@5@$0A@@std@@@std@@QBEIXZ ; std::_Tree<std::_Tmap_traits<Json::Value::CZString,Json::Value,std::less<Json::Value::CZString>,std::allocator<std::pair<Json::Value::CZString const ,Json::Value> >,0> >::size
	cmp	esi, eax
	jne	SHORT $LN23@operator@4
	mov	eax, DWORD PTR _other$[ebp]
	mov	ecx, DWORD PTR [eax]
	push	ecx
	mov	edx, DWORD PTR _this$[ebp]
	mov	eax, DWORD PTR [edx]
	push	eax
	call	??$?8V?$_Tmap_traits@VCZString@Value@Json@@V23@U?$less@VCZString@Value@Json@@@std@@V?$allocator@U?$pair@$$CBVCZString@Value@Json@@V23@@std@@@5@$0A@@std@@@std@@YA_NABV?$_Tree@V?$_Tmap_traits@VCZString@Value@Json@@V23@U?$less@VCZString@Value@Json@@@std@@V?$allocator@U?$pair@$$CBVCZString@Value@Json@@V23@@std@@@5@$0A@@std@@@0@0@Z ; std::operator==<std::_Tmap_traits<Json::Value::CZString,Json::Value,std::less<Json::Value::CZString>,std::allocator<std::pair<Json::Value::CZString const ,Json::Value> >,0> >
	add	esp, 8
	movzx	ecx, al
	test	ecx, ecx
	je	SHORT $LN23@operator@4
	mov	DWORD PTR tv141[ebp], 1
	jmp	SHORT $LN24@operator@4
$LN23@operator@4:
	mov	DWORD PTR tv141[ebp], 0
$LN24@operator@4:
	mov	al, BYTE PTR tv141[ebp]
	jmp	SHORT $LN12@operator@4
$LN1@operator@4:

; 682  : #else
; 683  :    case arrayValue:
; 684  :       return value_.array_->compare( *(other.value_.array_) ) == 0;
; 685  :    case objectValue:
; 686  :       return value_.map_->compare( *(other.value_.map_) ) == 0;
; 687  : #endif
; 688  :    default:
; 689  :       JSON_ASSERT_UNREACHABLE;
; 690  :    }
; 691  :    return 0;  // unreachable

	xor	al, al
$LN12@operator@4:

; 692  : }

	pop	esi
	mov	esp, ebp
	pop	ebp
	ret	4
	npad	3
$LN29@operator@4:
	DD	$LN8@operator@4
	DD	$LN7@operator@4
	DD	$LN6@operator@4
	DD	$LN5@operator@4
	DD	$LN3@operator@4
	DD	$LN4@operator@4
	DD	$LN2@operator@4
	DD	$LN2@operator@4
??8Value@Json@@QBE_NABV01@@Z ENDP			; Json::Value::operator==
_TEXT	ENDS
PUBLIC	??9Value@Json@@QBE_NABV01@@Z			; Json::Value::operator!=
; Function compile flags: /Odtp
;	COMDAT ??9Value@Json@@QBE_NABV01@@Z
_TEXT	SEGMENT
_this$ = -4						; size = 4
_other$ = 8						; size = 4
??9Value@Json@@QBE_NABV01@@Z PROC			; Json::Value::operator!=, COMDAT
; _this$ = ecx

; 696  : {

	push	ebp
	mov	ebp, esp
	push	ecx
	mov	DWORD PTR _this$[ebp], ecx

; 697  :    return !( *this == other );

	mov	eax, DWORD PTR _other$[ebp]
	push	eax
	mov	ecx, DWORD PTR _this$[ebp]
	call	??8Value@Json@@QBE_NABV01@@Z		; Json::Value::operator==
	movzx	eax, al
	neg	eax
	sbb	eax, eax
	add	eax, 1

; 698  : }

	mov	esp, ebp
	pop	ebp
	ret	4
??9Value@Json@@QBE_NABV01@@Z ENDP			; Json::Value::operator!=
_TEXT	ENDS
PUBLIC	?asCString@Value@Json@@QBEPBDXZ			; Json::Value::asCString
; Function compile flags: /Odtp
;	COMDAT ?asCString@Value@Json@@QBEPBDXZ
_TEXT	SEGMENT
_this$ = -4						; size = 4
?asCString@Value@Json@@QBEPBDXZ PROC			; Json::Value::asCString, COMDAT
; _this$ = ecx

; 702  : {

	push	ebp
	mov	ebp, esp
	push	ecx
	mov	DWORD PTR _this$[ebp], ecx

; 703  :    JSON_ASSERT( type_ == stringValue );
; 704  :    return value_.string_;

	mov	eax, DWORD PTR _this$[ebp]
	mov	eax, DWORD PTR [eax]

; 705  : }

	mov	esp, ebp
	pop	ebp
	ret	0
?asCString@Value@Json@@QBEPBDXZ ENDP			; Json::Value::asCString
_TEXT	ENDS
PUBLIC	??_C@_0CC@BNBMBIGA@Type?5is?5not?5convertible?5to?5strin@ ; `string'
PUBLIC	??_C@_05LAPONLG@false?$AA@			; `string'
PUBLIC	??_C@_04LOAJBDKD@true?$AA@			; `string'
PUBLIC	?asString@Value@Json@@QBE?AV?$basic_string@DU?$char_traits@D@std@@V?$allocator@D@2@@std@@XZ ; Json::Value::asString
;	COMDAT ??_C@_0CC@BNBMBIGA@Type?5is?5not?5convertible?5to?5strin@
CONST	SEGMENT
??_C@_0CC@BNBMBIGA@Type?5is?5not?5convertible?5to?5strin@ DB 'Type is not'
	DB	' convertible to string', 00H		; `string'
CONST	ENDS
;	COMDAT ??_C@_05LAPONLG@false?$AA@
CONST	SEGMENT
??_C@_05LAPONLG@false?$AA@ DB 'false', 00H		; `string'
CONST	ENDS
;	COMDAT ??_C@_04LOAJBDKD@true?$AA@
CONST	SEGMENT
??_C@_04LOAJBDKD@true?$AA@ DB 'true', 00H		; `string'
CONST	ENDS
;	COMDAT xdata$x
xdata$x	SEGMENT
__unwindtable$?asString@Value@Json@@QBE?AV?$basic_string@DU?$char_traits@D@std@@V?$allocator@D@2@@std@@XZ DD 0ffffffffH
	DD	FLAT:__unwindfunclet$?asString@Value@Json@@QBE?AV?$basic_string@DU?$char_traits@D@std@@V?$allocator@D@2@@std@@XZ$1
__ehfuncinfo$?asString@Value@Json@@QBE?AV?$basic_string@DU?$char_traits@D@std@@V?$allocator@D@2@@std@@XZ DD 019930522H
	DD	01H
	DD	FLAT:__unwindtable$?asString@Value@Json@@QBE?AV?$basic_string@DU?$char_traits@D@std@@V?$allocator@D@2@@std@@XZ
	DD	2 DUP(00H)
	DD	2 DUP(00H)
	DD	00H
	DD	01H
; Function compile flags: /Odtp
xdata$x	ENDS
;	COMDAT ?asString@Value@Json@@QBE?AV?$basic_string@DU?$char_traits@D@std@@V?$allocator@D@2@@std@@XZ
_TEXT	SEGMENT
tv82 = -100						; size = 4
tv75 = -96						; size = 4
tv67 = -92						; size = 4
_this$ = -88						; size = 4
$T31227 = -84						; size = 4
$T31225 = -80						; size = 28
$T31224 = -52						; size = 40
__$EHRec$ = -12						; size = 12
___$ReturnUdt$ = 8					; size = 4
?asString@Value@Json@@QBE?AV?$basic_string@DU?$char_traits@D@std@@V?$allocator@D@2@@std@@XZ PROC ; Json::Value::asString, COMDAT
; _this$ = ecx

; 710  : {

	push	ebp
	mov	ebp, esp
	push	-1
	push	__ehhandler$?asString@Value@Json@@QBE?AV?$basic_string@DU?$char_traits@D@std@@V?$allocator@D@2@@std@@XZ
	mov	eax, DWORD PTR fs:0
	push	eax
	sub	esp, 88					; 00000058H
	mov	eax, DWORD PTR ___security_cookie
	xor	eax, ebp
	push	eax
	lea	eax, DWORD PTR __$EHRec$[ebp]
	mov	DWORD PTR fs:0, eax
	mov	DWORD PTR _this$[ebp], ecx
	mov	DWORD PTR $T31227[ebp], 0

; 711  :    switch ( type_ )

	mov	eax, DWORD PTR _this$[ebp]
	mov	ecx, DWORD PTR [eax+8]
	shl	ecx, 24					; 00000018H
	sar	ecx, 24					; 00000018H
	mov	DWORD PTR tv67[ebp], ecx
	cmp	DWORD PTR tv67[ebp], 7
	ja	$LN7@asString
	mov	edx, DWORD PTR tv67[ebp]
	jmp	DWORD PTR $LN19@asString[edx*4]
$LN6@asString:

; 712  :    {
; 713  :    case nullValue:
; 714  :       return "";

	push	OFFSET ??_C@_00CNPNBAHC@?$AA@
	mov	ecx, DWORD PTR ___$ReturnUdt$[ebp]
	call	DWORD PTR __imp_??0?$basic_string@DU?$char_traits@D@std@@V?$allocator@D@2@@std@@QAE@PBD@Z
	mov	eax, DWORD PTR $T31227[ebp]
	or	eax, 1
	mov	DWORD PTR $T31227[ebp], eax
	mov	eax, DWORD PTR ___$ReturnUdt$[ebp]
	jmp	$LN10@asString
$LN5@asString:

; 715  :    case stringValue:
; 716  :       return value_.string_ ? value_.string_ : "";

	mov	ecx, DWORD PTR _this$[ebp]
	cmp	DWORD PTR [ecx], 0
	je	SHORT $LN11@asString
	mov	edx, DWORD PTR _this$[ebp]
	mov	eax, DWORD PTR [edx]
	mov	DWORD PTR tv75[ebp], eax
	jmp	SHORT $LN12@asString
$LN11@asString:
	mov	DWORD PTR tv75[ebp], OFFSET ??_C@_00CNPNBAHC@?$AA@
$LN12@asString:
	mov	ecx, DWORD PTR tv75[ebp]
	push	ecx
	mov	ecx, DWORD PTR ___$ReturnUdt$[ebp]
	call	DWORD PTR __imp_??0?$basic_string@DU?$char_traits@D@std@@V?$allocator@D@2@@std@@QAE@PBD@Z
	mov	edx, DWORD PTR $T31227[ebp]
	or	edx, 1
	mov	DWORD PTR $T31227[ebp], edx
	mov	eax, DWORD PTR ___$ReturnUdt$[ebp]
	jmp	$LN10@asString
$LN4@asString:

; 717  :    case booleanValue:
; 718  :       return value_.bool_ ? "true" : "false";

	mov	eax, DWORD PTR _this$[ebp]
	movzx	ecx, BYTE PTR [eax]
	test	ecx, ecx
	je	SHORT $LN13@asString
	mov	DWORD PTR tv82[ebp], OFFSET ??_C@_04LOAJBDKD@true?$AA@
	jmp	SHORT $LN14@asString
$LN13@asString:
	mov	DWORD PTR tv82[ebp], OFFSET ??_C@_05LAPONLG@false?$AA@
$LN14@asString:
	mov	edx, DWORD PTR tv82[ebp]
	push	edx
	mov	ecx, DWORD PTR ___$ReturnUdt$[ebp]
	call	DWORD PTR __imp_??0?$basic_string@DU?$char_traits@D@std@@V?$allocator@D@2@@std@@QAE@PBD@Z
	mov	eax, DWORD PTR $T31227[ebp]
	or	eax, 1
	mov	DWORD PTR $T31227[ebp], eax
	mov	eax, DWORD PTR ___$ReturnUdt$[ebp]
	jmp	SHORT $LN10@asString
$LN3@asString:

; 719  :    case intValue:
; 720  :    case uintValue:
; 721  :    case realValue:
; 722  :    case arrayValue:
; 723  :    case objectValue:
; 724  :       JSON_ASSERT_MESSAGE( false, "Type is not convertible to string" );

	mov	ecx, 1
	test	ecx, ecx
	je	SHORT $LN7@asString
	push	OFFSET ??_C@_0CC@BNBMBIGA@Type?5is?5not?5convertible?5to?5strin@
	lea	ecx, DWORD PTR $T31225[ebp]
	call	DWORD PTR __imp_??0?$basic_string@DU?$char_traits@D@std@@V?$allocator@D@2@@std@@QAE@PBD@Z
	mov	DWORD PTR __$EHRec$[ebp+8], 0
	lea	edx, DWORD PTR $T31225[ebp]
	push	edx
	lea	ecx, DWORD PTR $T31224[ebp]
	call	??0runtime_error@std@@QAE@ABV?$basic_string@DU?$char_traits@D@std@@V?$allocator@D@2@@1@@Z ; std::runtime_error::runtime_error
	push	OFFSET __TI2?AVruntime_error@std@@
	lea	eax, DWORD PTR $T31224[ebp]
	push	eax
	call	__CxxThrowException@8
	mov	DWORD PTR __$EHRec$[ebp+8], -1
	lea	ecx, DWORD PTR $T31225[ebp]
	call	DWORD PTR __imp_??1?$basic_string@DU?$char_traits@D@std@@V?$allocator@D@2@@std@@QAE@XZ
$LN7@asString:

; 725  :    default:
; 726  :       JSON_ASSERT_UNREACHABLE;
; 727  :    }
; 728  :    return ""; // unreachable

	push	OFFSET ??_C@_00CNPNBAHC@?$AA@
	mov	ecx, DWORD PTR ___$ReturnUdt$[ebp]
	call	DWORD PTR __imp_??0?$basic_string@DU?$char_traits@D@std@@V?$allocator@D@2@@std@@QAE@PBD@Z
	mov	ecx, DWORD PTR $T31227[ebp]
	or	ecx, 1
	mov	DWORD PTR $T31227[ebp], ecx
	mov	eax, DWORD PTR ___$ReturnUdt$[ebp]
$LN10@asString:

; 729  : }

	mov	ecx, DWORD PTR __$EHRec$[ebp]
	mov	DWORD PTR fs:0, ecx
	pop	ecx
	mov	esp, ebp
	pop	ebp
	ret	4
$LN19@asString:
	DD	$LN6@asString
	DD	$LN3@asString
	DD	$LN3@asString
	DD	$LN3@asString
	DD	$LN5@asString
	DD	$LN4@asString
	DD	$LN3@asString
	DD	$LN3@asString
_TEXT	ENDS
;	COMDAT text$x
text$x	SEGMENT
__unwindfunclet$?asString@Value@Json@@QBE?AV?$basic_string@DU?$char_traits@D@std@@V?$allocator@D@2@@std@@XZ$1:
	lea	ecx, DWORD PTR $T31225[ebp]
	jmp	DWORD PTR __imp_??1?$basic_string@DU?$char_traits@D@std@@V?$allocator@D@2@@std@@QAE@XZ
__ehhandler$?asString@Value@Json@@QBE?AV?$basic_string@DU?$char_traits@D@std@@V?$allocator@D@2@@std@@XZ:
	mov	edx, DWORD PTR [esp+8]
	lea	eax, DWORD PTR [edx+12]
	mov	ecx, DWORD PTR [edx-92]
	xor	ecx, eax
	call	@__security_check_cookie@4
	mov	eax, OFFSET __ehfuncinfo$?asString@Value@Json@@QBE?AV?$basic_string@DU?$char_traits@D@std@@V?$allocator@D@2@@std@@XZ
	jmp	___CxxFrameHandler3
text$x	ENDS
?asString@Value@Json@@QBE?AV?$basic_string@DU?$char_traits@D@std@@V?$allocator@D@2@@std@@XZ ENDP ; Json::Value::asString
PUBLIC	??_C@_0BP@KDDCHLKA@Type?5is?5not?5convertible?5to?5int?$AA@ ; `string'
PUBLIC	??_C@_0CB@PBEICPFN@Real?5out?5of?5signed?5integer?5range@ ; `string'
PUBLIC	__real@41dfffffffc00000
PUBLIC	__real@c1e0000000000000
PUBLIC	??_C@_0CE@MKMAPPKF@integer?5out?5of?5signed?5integer?5ra@ ; `string'
PUBLIC	?asInt@Value@Json@@QBEHXZ			; Json::Value::asInt
EXTRN	__ftol2_sse:PROC
;	COMDAT ??_C@_0BP@KDDCHLKA@Type?5is?5not?5convertible?5to?5int?$AA@
CONST	SEGMENT
??_C@_0BP@KDDCHLKA@Type?5is?5not?5convertible?5to?5int?$AA@ DB 'Type is n'
	DB	'ot convertible to int', 00H			; `string'
CONST	ENDS
;	COMDAT ??_C@_0CB@PBEICPFN@Real?5out?5of?5signed?5integer?5range@
CONST	SEGMENT
??_C@_0CB@PBEICPFN@Real?5out?5of?5signed?5integer?5range@ DB 'Real out of'
	DB	' signed integer range', 00H			; `string'
CONST	ENDS
;	COMDAT __real@41dfffffffc00000
CONST	SEGMENT
__real@41dfffffffc00000 DQ 041dfffffffc00000r	; 2.14748e+009
CONST	ENDS
;	COMDAT __real@c1e0000000000000
CONST	SEGMENT
__real@c1e0000000000000 DQ 0c1e0000000000000r	; -2.14748e+009
CONST	ENDS
;	COMDAT ??_C@_0CE@MKMAPPKF@integer?5out?5of?5signed?5integer?5ra@
CONST	SEGMENT
??_C@_0CE@MKMAPPKF@integer?5out?5of?5signed?5integer?5ra@ DB 'integer out'
	DB	' of signed integer range', 00H		; `string'
CONST	ENDS
;	COMDAT xdata$x
xdata$x	SEGMENT
__unwindtable$?asInt@Value@Json@@QBEHXZ DD 0ffffffffH
	DD	FLAT:__unwindfunclet$?asInt@Value@Json@@QBEHXZ$0
	DD	0ffffffffH
	DD	FLAT:__unwindfunclet$?asInt@Value@Json@@QBEHXZ$1
	DD	0ffffffffH
	DD	FLAT:__unwindfunclet$?asInt@Value@Json@@QBEHXZ$2
__ehfuncinfo$?asInt@Value@Json@@QBEHXZ DD 019930522H
	DD	03H
	DD	FLAT:__unwindtable$?asInt@Value@Json@@QBEHXZ
	DD	2 DUP(00H)
	DD	2 DUP(00H)
	DD	00H
	DD	01H
; Function compile flags: /Odtp
xdata$x	ENDS
;	COMDAT ?asInt@Value@Json@@QBEHXZ
_TEXT	SEGMENT
tv142 = -228						; size = 4
tv67 = -224						; size = 4
_this$ = -220						; size = 4
$T31244 = -216						; size = 28
$T31243 = -188						; size = 40
$T31242 = -148						; size = 28
$T31241 = -120						; size = 40
$T31240 = -80						; size = 28
$T31239 = -52						; size = 40
__$EHRec$ = -12						; size = 12
?asInt@Value@Json@@QBEHXZ PROC				; Json::Value::asInt, COMDAT
; _this$ = ecx

; 741  : {

	push	ebp
	mov	ebp, esp
	push	-1
	push	__ehhandler$?asInt@Value@Json@@QBEHXZ
	mov	eax, DWORD PTR fs:0
	push	eax
	sub	esp, 216				; 000000d8H
	mov	eax, DWORD PTR ___security_cookie
	xor	eax, ebp
	push	eax
	lea	eax, DWORD PTR __$EHRec$[ebp]
	mov	DWORD PTR fs:0, eax
	mov	DWORD PTR _this$[ebp], ecx

; 742  :    switch ( type_ )

	mov	eax, DWORD PTR _this$[ebp]
	mov	ecx, DWORD PTR [eax+8]
	shl	ecx, 24					; 00000018H
	sar	ecx, 24					; 00000018H
	mov	DWORD PTR tv67[ebp], ecx
	cmp	DWORD PTR tv67[ebp], 7
	ja	$LN2@asInt
	mov	edx, DWORD PTR tv67[ebp]
	jmp	DWORD PTR $LN21@asInt[edx*4]
$LN11@asInt:

; 743  :    {
; 744  :    case nullValue:
; 745  :       return 0;

	xor	eax, eax
	jmp	$LN14@asInt
$LN10@asInt:

; 746  :    case intValue:
; 747  : 	   return static_cast<Value::Int>(value_.int_);

	mov	eax, DWORD PTR _this$[ebp]
	mov	eax, DWORD PTR [eax]
	jmp	$LN14@asInt
$LN9@asInt:

; 748  :    case uintValue:
; 749  :       JSON_ASSERT_MESSAGE( value_.uint_ < (unsigned)maxInt, "integer out of signed integer range" );

	mov	ecx, DWORD PTR _this$[ebp]
	mov	DWORD PTR tv142[ebp], ecx
	mov	edx, DWORD PTR tv142[ebp]
	cmp	DWORD PTR [edx+4], 0
	ja	SHORT $LN19@asInt
	mov	eax, DWORD PTR tv142[ebp]
	cmp	DWORD PTR [eax], 2147483647		; 7fffffffH
	jb	SHORT $LN8@asInt
$LN19@asInt:
	push	OFFSET ??_C@_0CE@MKMAPPKF@integer?5out?5of?5signed?5integer?5ra@
	lea	ecx, DWORD PTR $T31240[ebp]
	call	DWORD PTR __imp_??0?$basic_string@DU?$char_traits@D@std@@V?$allocator@D@2@@std@@QAE@PBD@Z
	mov	DWORD PTR __$EHRec$[ebp+8], 0
	lea	ecx, DWORD PTR $T31240[ebp]
	push	ecx
	lea	ecx, DWORD PTR $T31239[ebp]
	call	??0runtime_error@std@@QAE@ABV?$basic_string@DU?$char_traits@D@std@@V?$allocator@D@2@@1@@Z ; std::runtime_error::runtime_error
	push	OFFSET __TI2?AVruntime_error@std@@
	lea	edx, DWORD PTR $T31239[ebp]
	push	edx
	call	__CxxThrowException@8
	mov	DWORD PTR __$EHRec$[ebp+8], -1
	lea	ecx, DWORD PTR $T31240[ebp]
	call	DWORD PTR __imp_??1?$basic_string@DU?$char_traits@D@std@@V?$allocator@D@2@@std@@QAE@XZ
$LN8@asInt:

; 750  :       return static_cast<Value::Int>(value_.uint_);

	mov	eax, DWORD PTR _this$[ebp]
	mov	eax, DWORD PTR [eax]
	jmp	$LN14@asInt
$LN7@asInt:

; 751  :    case realValue:
; 752  :       JSON_ASSERT_MESSAGE( value_.real_ >= minInt  &&  value_.real_ <= maxInt, "Real out of signed integer range" );

	mov	ecx, DWORD PTR _this$[ebp]
	fld	QWORD PTR __real@c1e0000000000000
	fcomp	QWORD PTR [ecx]
	fnstsw	ax
	test	ah, 65					; 00000041H
	jp	SHORT $LN5@asInt
	mov	edx, DWORD PTR _this$[ebp]
	fld	QWORD PTR __real@41dfffffffc00000
	fcomp	QWORD PTR [edx]
	fnstsw	ax
	test	ah, 1
	je	SHORT $LN6@asInt
$LN5@asInt:
	push	OFFSET ??_C@_0CB@PBEICPFN@Real?5out?5of?5signed?5integer?5range@
	lea	ecx, DWORD PTR $T31242[ebp]
	call	DWORD PTR __imp_??0?$basic_string@DU?$char_traits@D@std@@V?$allocator@D@2@@std@@QAE@PBD@Z
	mov	DWORD PTR __$EHRec$[ebp+8], 1
	lea	eax, DWORD PTR $T31242[ebp]
	push	eax
	lea	ecx, DWORD PTR $T31241[ebp]
	call	??0runtime_error@std@@QAE@ABV?$basic_string@DU?$char_traits@D@std@@V?$allocator@D@2@@1@@Z ; std::runtime_error::runtime_error
	push	OFFSET __TI2?AVruntime_error@std@@
	lea	ecx, DWORD PTR $T31241[ebp]
	push	ecx
	call	__CxxThrowException@8
	mov	DWORD PTR __$EHRec$[ebp+8], -1
	lea	ecx, DWORD PTR $T31242[ebp]
	call	DWORD PTR __imp_??1?$basic_string@DU?$char_traits@D@std@@V?$allocator@D@2@@std@@QAE@XZ
$LN6@asInt:

; 753  :       return Int( value_.real_ );

	mov	edx, DWORD PTR _this$[ebp]
	fld	QWORD PTR [edx]
	call	__ftol2_sse
	jmp	SHORT $LN14@asInt
$LN4@asInt:

; 754  :    case booleanValue:
; 755  :       return value_.bool_ ? 1 : 0;

	mov	eax, DWORD PTR _this$[ebp]
	movzx	eax, BYTE PTR [eax]
	neg	eax
	sbb	eax, eax
	neg	eax
	jmp	SHORT $LN14@asInt
$LN3@asInt:

; 756  :    case stringValue:
; 757  :    case arrayValue:
; 758  :    case objectValue:
; 759  :       JSON_ASSERT_MESSAGE( false, "Type is not convertible to int" );

	mov	ecx, 1
	test	ecx, ecx
	je	SHORT $LN2@asInt
	push	OFFSET ??_C@_0BP@KDDCHLKA@Type?5is?5not?5convertible?5to?5int?$AA@
	lea	ecx, DWORD PTR $T31244[ebp]
	call	DWORD PTR __imp_??0?$basic_string@DU?$char_traits@D@std@@V?$allocator@D@2@@std@@QAE@PBD@Z
	mov	DWORD PTR __$EHRec$[ebp+8], 2
	lea	edx, DWORD PTR $T31244[ebp]
	push	edx
	lea	ecx, DWORD PTR $T31243[ebp]
	call	??0runtime_error@std@@QAE@ABV?$basic_string@DU?$char_traits@D@std@@V?$allocator@D@2@@1@@Z ; std::runtime_error::runtime_error
	push	OFFSET __TI2?AVruntime_error@std@@
	lea	eax, DWORD PTR $T31243[ebp]
	push	eax
	call	__CxxThrowException@8
	mov	DWORD PTR __$EHRec$[ebp+8], -1
	lea	ecx, DWORD PTR $T31244[ebp]
	call	DWORD PTR __imp_??1?$basic_string@DU?$char_traits@D@std@@V?$allocator@D@2@@std@@QAE@XZ
$LN2@asInt:

; 760  :    default:
; 761  :       JSON_ASSERT_UNREACHABLE;
; 762  :    }
; 763  :    return 0; // unreachable;

	xor	eax, eax
$LN14@asInt:

; 764  : }

	mov	ecx, DWORD PTR __$EHRec$[ebp]
	mov	DWORD PTR fs:0, ecx
	pop	ecx
	mov	esp, ebp
	pop	ebp
	ret	0
	npad	3
$LN21@asInt:
	DD	$LN11@asInt
	DD	$LN10@asInt
	DD	$LN9@asInt
	DD	$LN7@asInt
	DD	$LN3@asInt
	DD	$LN4@asInt
	DD	$LN3@asInt
	DD	$LN3@asInt
_TEXT	ENDS
;	COMDAT text$x
text$x	SEGMENT
__unwindfunclet$?asInt@Value@Json@@QBEHXZ$0:
	lea	ecx, DWORD PTR $T31240[ebp]
	jmp	DWORD PTR __imp_??1?$basic_string@DU?$char_traits@D@std@@V?$allocator@D@2@@std@@QAE@XZ
__unwindfunclet$?asInt@Value@Json@@QBEHXZ$1:
	lea	ecx, DWORD PTR $T31242[ebp]
	jmp	DWORD PTR __imp_??1?$basic_string@DU?$char_traits@D@std@@V?$allocator@D@2@@std@@QAE@XZ
__unwindfunclet$?asInt@Value@Json@@QBEHXZ$2:
	lea	ecx, DWORD PTR $T31244[ebp]
	jmp	DWORD PTR __imp_??1?$basic_string@DU?$char_traits@D@std@@V?$allocator@D@2@@std@@QAE@XZ
__ehhandler$?asInt@Value@Json@@QBEHXZ:
	mov	edx, DWORD PTR [esp+8]
	lea	eax, DWORD PTR [edx+12]
	mov	ecx, DWORD PTR [edx-220]
	xor	ecx, eax
	call	@__security_check_cookie@4
	mov	eax, OFFSET __ehfuncinfo$?asInt@Value@Json@@QBEHXZ
	jmp	___CxxFrameHandler3
text$x	ENDS
?asInt@Value@Json@@QBEHXZ ENDP				; Json::Value::asInt
PUBLIC	??_C@_0CA@LEFAEJPN@Type?5is?5not?5convertible?5to?5uint?$AA@ ; `string'
PUBLIC	??_C@_0CD@PGCLDEBG@Real?5out?5of?5unsigned?5integer?5ran@ ; `string'
PUBLIC	__real@41efffffffe00000
PUBLIC	??_C@_0DK@NAHIGMFE@Negative?5integer?5can?5not?5be?5conv@ ; `string'
PUBLIC	?asUInt@Value@Json@@QBEIXZ			; Json::Value::asUInt
;	COMDAT ??_C@_0CA@LEFAEJPN@Type?5is?5not?5convertible?5to?5uint?$AA@
CONST	SEGMENT
??_C@_0CA@LEFAEJPN@Type?5is?5not?5convertible?5to?5uint?$AA@ DB 'Type is '
	DB	'not convertible to uint', 00H		; `string'
CONST	ENDS
;	COMDAT ??_C@_0CD@PGCLDEBG@Real?5out?5of?5unsigned?5integer?5ran@
CONST	SEGMENT
??_C@_0CD@PGCLDEBG@Real?5out?5of?5unsigned?5integer?5ran@ DB 'Real out of'
	DB	' unsigned integer range', 00H		; `string'
CONST	ENDS
;	COMDAT __real@41efffffffe00000
CONST	SEGMENT
__real@41efffffffe00000 DQ 041efffffffe00000r	; 4.29497e+009
CONST	ENDS
;	COMDAT ??_C@_0DK@NAHIGMFE@Negative?5integer?5can?5not?5be?5conv@
CONST	SEGMENT
??_C@_0DK@NAHIGMFE@Negative?5integer?5can?5not?5be?5conv@ DB 'Negative in'
	DB	'teger can not be converted to unsigned integer', 00H ; `string'
CONST	ENDS
;	COMDAT xdata$x
xdata$x	SEGMENT
__unwindtable$?asUInt@Value@Json@@QBEIXZ DD 0ffffffffH
	DD	FLAT:__unwindfunclet$?asUInt@Value@Json@@QBEIXZ$0
	DD	0ffffffffH
	DD	FLAT:__unwindfunclet$?asUInt@Value@Json@@QBEIXZ$1
	DD	0ffffffffH
	DD	FLAT:__unwindfunclet$?asUInt@Value@Json@@QBEIXZ$2
__ehfuncinfo$?asUInt@Value@Json@@QBEIXZ DD 019930522H
	DD	03H
	DD	FLAT:__unwindtable$?asUInt@Value@Json@@QBEIXZ
	DD	2 DUP(00H)
	DD	2 DUP(00H)
	DD	00H
	DD	01H
; Function compile flags: /Odtp
xdata$x	ENDS
;	COMDAT ?asUInt@Value@Json@@QBEIXZ
_TEXT	SEGMENT
tv170 = -244						; size = 8
tv168 = -236						; size = 4
tv165 = -230						; size = 2
tv140 = -228						; size = 4
tv67 = -224						; size = 4
_this$ = -220						; size = 4
$T31268 = -216						; size = 28
$T31267 = -188						; size = 40
$T31266 = -148						; size = 28
$T31265 = -120						; size = 40
$T31264 = -80						; size = 28
$T31263 = -52						; size = 40
__$EHRec$ = -12						; size = 12
?asUInt@Value@Json@@QBEIXZ PROC				; Json::Value::asUInt, COMDAT
; _this$ = ecx

; 768  : {

	push	ebp
	mov	ebp, esp
	push	-1
	push	__ehhandler$?asUInt@Value@Json@@QBEIXZ
	mov	eax, DWORD PTR fs:0
	push	eax
	sub	esp, 232				; 000000e8H
	mov	eax, DWORD PTR ___security_cookie
	xor	eax, ebp
	push	eax
	lea	eax, DWORD PTR __$EHRec$[ebp]
	mov	DWORD PTR fs:0, eax
	mov	DWORD PTR _this$[ebp], ecx

; 769  :    switch ( type_ )

	mov	eax, DWORD PTR _this$[ebp]
	mov	ecx, DWORD PTR [eax+8]
	shl	ecx, 24					; 00000018H
	sar	ecx, 24					; 00000018H
	mov	DWORD PTR tv67[ebp], ecx
	cmp	DWORD PTR tv67[ebp], 7
	ja	$LN2@asUInt
	mov	edx, DWORD PTR tv67[ebp]
	jmp	DWORD PTR $LN21@asUInt[edx*4]
$LN11@asUInt:

; 770  :    {
; 771  :    case nullValue:
; 772  :       return 0;

	xor	eax, eax
	jmp	$LN14@asUInt
$LN10@asUInt:

; 773  :    case intValue:
; 774  :       JSON_ASSERT_MESSAGE( value_.int_ >= 0, "Negative integer can not be converted to unsigned integer" );

	mov	eax, DWORD PTR _this$[ebp]
	mov	DWORD PTR tv140[ebp], eax
	mov	ecx, DWORD PTR tv140[ebp]
	cmp	DWORD PTR [ecx+4], 0
	jg	SHORT $LN9@asUInt
	jl	SHORT $LN19@asUInt
	mov	edx, DWORD PTR tv140[ebp]
	cmp	DWORD PTR [edx], 0
	jae	SHORT $LN9@asUInt
$LN19@asUInt:
	push	OFFSET ??_C@_0DK@NAHIGMFE@Negative?5integer?5can?5not?5be?5conv@
	lea	ecx, DWORD PTR $T31264[ebp]
	call	DWORD PTR __imp_??0?$basic_string@DU?$char_traits@D@std@@V?$allocator@D@2@@std@@QAE@PBD@Z
	mov	DWORD PTR __$EHRec$[ebp+8], 0
	lea	eax, DWORD PTR $T31264[ebp]
	push	eax
	lea	ecx, DWORD PTR $T31263[ebp]
	call	??0runtime_error@std@@QAE@ABV?$basic_string@DU?$char_traits@D@std@@V?$allocator@D@2@@1@@Z ; std::runtime_error::runtime_error
	push	OFFSET __TI2?AVruntime_error@std@@
	lea	ecx, DWORD PTR $T31263[ebp]
	push	ecx
	call	__CxxThrowException@8
	mov	DWORD PTR __$EHRec$[ebp+8], -1
	lea	ecx, DWORD PTR $T31264[ebp]
	call	DWORD PTR __imp_??1?$basic_string@DU?$char_traits@D@std@@V?$allocator@D@2@@std@@QAE@XZ
$LN9@asUInt:

; 775  :       return static_cast<Value::Int>(value_.int_);

	mov	edx, DWORD PTR _this$[ebp]
	mov	eax, DWORD PTR [edx]
	jmp	$LN14@asUInt
$LN8@asUInt:

; 776  :    case uintValue:
; 777  :       return static_cast<Value::Int>(value_.uint_);

	mov	eax, DWORD PTR _this$[ebp]
	mov	eax, DWORD PTR [eax]
	jmp	$LN14@asUInt
$LN7@asUInt:

; 778  :    case realValue:
; 779  :       JSON_ASSERT_MESSAGE( value_.real_ >= 0  &&  value_.real_ <= maxUInt,  "Real out of unsigned integer range" );

	mov	ecx, DWORD PTR _this$[ebp]
	fldz
	fcomp	QWORD PTR [ecx]
	fnstsw	ax
	test	ah, 65					; 00000041H
	jp	SHORT $LN5@asUInt
	mov	edx, DWORD PTR _this$[ebp]
	fld	QWORD PTR __real@41efffffffe00000
	fcomp	QWORD PTR [edx]
	fnstsw	ax
	test	ah, 1
	je	SHORT $LN6@asUInt
$LN5@asUInt:
	push	OFFSET ??_C@_0CD@PGCLDEBG@Real?5out?5of?5unsigned?5integer?5ran@
	lea	ecx, DWORD PTR $T31266[ebp]
	call	DWORD PTR __imp_??0?$basic_string@DU?$char_traits@D@std@@V?$allocator@D@2@@std@@QAE@PBD@Z
	mov	DWORD PTR __$EHRec$[ebp+8], 1
	lea	eax, DWORD PTR $T31266[ebp]
	push	eax
	lea	ecx, DWORD PTR $T31265[ebp]
	call	??0runtime_error@std@@QAE@ABV?$basic_string@DU?$char_traits@D@std@@V?$allocator@D@2@@1@@Z ; std::runtime_error::runtime_error
	push	OFFSET __TI2?AVruntime_error@std@@
	lea	ecx, DWORD PTR $T31265[ebp]
	push	ecx
	call	__CxxThrowException@8
	mov	DWORD PTR __$EHRec$[ebp+8], -1
	lea	ecx, DWORD PTR $T31266[ebp]
	call	DWORD PTR __imp_??1?$basic_string@DU?$char_traits@D@std@@V?$allocator@D@2@@std@@QAE@XZ
$LN6@asUInt:

; 780  :       return UInt( value_.real_ );

	mov	edx, DWORD PTR _this$[ebp]
	fld	QWORD PTR [edx]
	fnstcw	WORD PTR tv165[ebp]
	movzx	eax, WORD PTR tv165[ebp]
	or	eax, 3072				; 00000c00H
	mov	DWORD PTR tv168[ebp], eax
	fldcw	WORD PTR tv168[ebp]
	fistp	QWORD PTR tv170[ebp]
	fldcw	WORD PTR tv165[ebp]
	mov	eax, DWORD PTR tv170[ebp]
	jmp	SHORT $LN14@asUInt
$LN4@asUInt:

; 781  :    case booleanValue:
; 782  :       return value_.bool_ ? 1 : 0;

	mov	eax, DWORD PTR _this$[ebp]
	movzx	eax, BYTE PTR [eax]
	neg	eax
	sbb	eax, eax
	neg	eax
	jmp	SHORT $LN14@asUInt
$LN3@asUInt:

; 783  :    case stringValue:
; 784  :    case arrayValue:
; 785  :    case objectValue:
; 786  :       JSON_ASSERT_MESSAGE( false, "Type is not convertible to uint" );

	mov	ecx, 1
	test	ecx, ecx
	je	SHORT $LN2@asUInt
	push	OFFSET ??_C@_0CA@LEFAEJPN@Type?5is?5not?5convertible?5to?5uint?$AA@
	lea	ecx, DWORD PTR $T31268[ebp]
	call	DWORD PTR __imp_??0?$basic_string@DU?$char_traits@D@std@@V?$allocator@D@2@@std@@QAE@PBD@Z
	mov	DWORD PTR __$EHRec$[ebp+8], 2
	lea	edx, DWORD PTR $T31268[ebp]
	push	edx
	lea	ecx, DWORD PTR $T31267[ebp]
	call	??0runtime_error@std@@QAE@ABV?$basic_string@DU?$char_traits@D@std@@V?$allocator@D@2@@1@@Z ; std::runtime_error::runtime_error
	push	OFFSET __TI2?AVruntime_error@std@@
	lea	eax, DWORD PTR $T31267[ebp]
	push	eax
	call	__CxxThrowException@8
	mov	DWORD PTR __$EHRec$[ebp+8], -1
	lea	ecx, DWORD PTR $T31268[ebp]
	call	DWORD PTR __imp_??1?$basic_string@DU?$char_traits@D@std@@V?$allocator@D@2@@std@@QAE@XZ
$LN2@asUInt:

; 787  :    default:
; 788  :       JSON_ASSERT_UNREACHABLE;
; 789  :    }
; 790  :    return 0; // unreachable;

	xor	eax, eax
$LN14@asUInt:

; 791  : }

	mov	ecx, DWORD PTR __$EHRec$[ebp]
	mov	DWORD PTR fs:0, ecx
	pop	ecx
	mov	esp, ebp
	pop	ebp
	ret	0
	npad	1
$LN21@asUInt:
	DD	$LN11@asUInt
	DD	$LN10@asUInt
	DD	$LN8@asUInt
	DD	$LN7@asUInt
	DD	$LN3@asUInt
	DD	$LN4@asUInt
	DD	$LN3@asUInt
	DD	$LN3@asUInt
_TEXT	ENDS
;	COMDAT text$x
text$x	SEGMENT
__unwindfunclet$?asUInt@Value@Json@@QBEIXZ$0:
	lea	ecx, DWORD PTR $T31264[ebp]
	jmp	DWORD PTR __imp_??1?$basic_string@DU?$char_traits@D@std@@V?$allocator@D@2@@std@@QAE@XZ
__unwindfunclet$?asUInt@Value@Json@@QBEIXZ$1:
	lea	ecx, DWORD PTR $T31266[ebp]
	jmp	DWORD PTR __imp_??1?$basic_string@DU?$char_traits@D@std@@V?$allocator@D@2@@std@@QAE@XZ
__unwindfunclet$?asUInt@Value@Json@@QBEIXZ$2:
	lea	ecx, DWORD PTR $T31268[ebp]
	jmp	DWORD PTR __imp_??1?$basic_string@DU?$char_traits@D@std@@V?$allocator@D@2@@std@@QAE@XZ
__ehhandler$?asUInt@Value@Json@@QBEIXZ:
	mov	edx, DWORD PTR [esp+8]
	lea	eax, DWORD PTR [edx+12]
	mov	ecx, DWORD PTR [edx-236]
	xor	ecx, eax
	call	@__security_check_cookie@4
	mov	eax, OFFSET __ehfuncinfo$?asUInt@Value@Json@@QBEIXZ
	jmp	___CxxFrameHandler3
text$x	ENDS
?asUInt@Value@Json@@QBEIXZ ENDP				; Json::Value::asUInt
PUBLIC	?asInt64@Value@Json@@QBE_JXZ			; Json::Value::asInt64
;	COMDAT xdata$x
xdata$x	SEGMENT
__unwindtable$?asInt64@Value@Json@@QBE_JXZ DD 0ffffffffH
	DD	FLAT:__unwindfunclet$?asInt64@Value@Json@@QBE_JXZ$0
	DD	0ffffffffH
	DD	FLAT:__unwindfunclet$?asInt64@Value@Json@@QBE_JXZ$1
__ehfuncinfo$?asInt64@Value@Json@@QBE_JXZ DD 019930522H
	DD	02H
	DD	FLAT:__unwindtable$?asInt64@Value@Json@@QBE_JXZ
	DD	2 DUP(00H)
	DD	2 DUP(00H)
	DD	00H
	DD	01H
; Function compile flags: /Odtp
xdata$x	ENDS
;	COMDAT ?asInt64@Value@Json@@QBE_JXZ
_TEXT	SEGMENT
tv158 = -172						; size = 8
tv156 = -164						; size = 4
tv153 = -158						; size = 2
tv67 = -156						; size = 4
_this$ = -152						; size = 4
$T31287 = -148						; size = 28
$T31286 = -120						; size = 40
$T31285 = -80						; size = 28
$T31284 = -52						; size = 40
__$EHRec$ = -12						; size = 12
?asInt64@Value@Json@@QBE_JXZ PROC			; Json::Value::asInt64, COMDAT
; _this$ = ecx

; 794  : {

	push	ebp
	mov	ebp, esp
	push	-1
	push	__ehhandler$?asInt64@Value@Json@@QBE_JXZ
	mov	eax, DWORD PTR fs:0
	push	eax
	sub	esp, 160				; 000000a0H
	mov	eax, DWORD PTR ___security_cookie
	xor	eax, ebp
	push	eax
	lea	eax, DWORD PTR __$EHRec$[ebp]
	mov	DWORD PTR fs:0, eax
	mov	DWORD PTR _this$[ebp], ecx

; 795  : 	switch ( type_ )

	mov	eax, DWORD PTR _this$[ebp]
	mov	ecx, DWORD PTR [eax+8]
	shl	ecx, 24					; 00000018H
	sar	ecx, 24					; 00000018H
	mov	DWORD PTR tv67[ebp], ecx
	cmp	DWORD PTR tv67[ebp], 7
	ja	$LN2@asInt64
	mov	edx, DWORD PTR tv67[ebp]
	jmp	DWORD PTR $LN18@asInt64[edx*4]
$LN10@asInt64:

; 796  : 	{
; 797  : 	case nullValue:
; 798  : 		return 0;

	xor	eax, eax
	xor	edx, edx
	jmp	$LN13@asInt64
$LN9@asInt64:

; 799  : 	case intValue:
; 800  : 		return (value_.int_);

	mov	ecx, DWORD PTR _this$[ebp]
	mov	eax, DWORD PTR [ecx]
	mov	edx, DWORD PTR [ecx+4]
	jmp	$LN13@asInt64
$LN8@asInt64:

; 801  : 	case uintValue:
; 802  : 		return (value_.uint_);

	mov	edx, DWORD PTR _this$[ebp]
	mov	eax, DWORD PTR [edx]
	mov	edx, DWORD PTR [edx+4]
	jmp	$LN13@asInt64
$LN7@asInt64:

; 803  : 	case realValue:
; 804  : 		JSON_ASSERT_MESSAGE( value_.real_ >= 0  &&  value_.real_ <= maxUInt,  "Real out of unsigned integer range" );

	mov	eax, DWORD PTR _this$[ebp]
	fldz
	fcomp	QWORD PTR [eax]
	fnstsw	ax
	test	ah, 65					; 00000041H
	jp	SHORT $LN5@asInt64
	mov	ecx, DWORD PTR _this$[ebp]
	fld	QWORD PTR __real@41efffffffe00000
	fcomp	QWORD PTR [ecx]
	fnstsw	ax
	test	ah, 1
	je	SHORT $LN6@asInt64
$LN5@asInt64:
	push	OFFSET ??_C@_0CD@PGCLDEBG@Real?5out?5of?5unsigned?5integer?5ran@
	lea	ecx, DWORD PTR $T31285[ebp]
	call	DWORD PTR __imp_??0?$basic_string@DU?$char_traits@D@std@@V?$allocator@D@2@@std@@QAE@PBD@Z
	mov	DWORD PTR __$EHRec$[ebp+8], 0
	lea	edx, DWORD PTR $T31285[ebp]
	push	edx
	lea	ecx, DWORD PTR $T31284[ebp]
	call	??0runtime_error@std@@QAE@ABV?$basic_string@DU?$char_traits@D@std@@V?$allocator@D@2@@1@@Z ; std::runtime_error::runtime_error
	push	OFFSET __TI2?AVruntime_error@std@@
	lea	eax, DWORD PTR $T31284[ebp]
	push	eax
	call	__CxxThrowException@8
	mov	DWORD PTR __$EHRec$[ebp+8], -1
	lea	ecx, DWORD PTR $T31285[ebp]
	call	DWORD PTR __imp_??1?$basic_string@DU?$char_traits@D@std@@V?$allocator@D@2@@std@@QAE@XZ
$LN6@asInt64:

; 805  : 		return UInt( value_.real_ );

	mov	ecx, DWORD PTR _this$[ebp]
	fld	QWORD PTR [ecx]
	fnstcw	WORD PTR tv153[ebp]
	movzx	eax, WORD PTR tv153[ebp]
	or	eax, 3072				; 00000c00H
	mov	DWORD PTR tv156[ebp], eax
	fldcw	WORD PTR tv156[ebp]
	fistp	QWORD PTR tv158[ebp]
	fldcw	WORD PTR tv153[ebp]
	mov	eax, DWORD PTR tv158[ebp]
	xor	edx, edx
	jmp	SHORT $LN13@asInt64
$LN4@asInt64:

; 806  : 	case booleanValue:
; 807  : 		return value_.bool_ ? 1 : 0;

	mov	edx, DWORD PTR _this$[ebp]
	movzx	eax, BYTE PTR [edx]
	neg	eax
	sbb	eax, eax
	neg	eax
	cdq
	jmp	SHORT $LN13@asInt64
$LN3@asInt64:

; 808  : 	case stringValue:
; 809  : 	case arrayValue:
; 810  : 	case objectValue:
; 811  : 		JSON_ASSERT_MESSAGE( false, "Type is not convertible to uint" );

	mov	eax, 1
	test	eax, eax
	je	SHORT $LN2@asInt64
	push	OFFSET ??_C@_0CA@LEFAEJPN@Type?5is?5not?5convertible?5to?5uint?$AA@
	lea	ecx, DWORD PTR $T31287[ebp]
	call	DWORD PTR __imp_??0?$basic_string@DU?$char_traits@D@std@@V?$allocator@D@2@@std@@QAE@PBD@Z
	mov	DWORD PTR __$EHRec$[ebp+8], 1
	lea	ecx, DWORD PTR $T31287[ebp]
	push	ecx
	lea	ecx, DWORD PTR $T31286[ebp]
	call	??0runtime_error@std@@QAE@ABV?$basic_string@DU?$char_traits@D@std@@V?$allocator@D@2@@1@@Z ; std::runtime_error::runtime_error
	push	OFFSET __TI2?AVruntime_error@std@@
	lea	edx, DWORD PTR $T31286[ebp]
	push	edx
	call	__CxxThrowException@8
	mov	DWORD PTR __$EHRec$[ebp+8], -1
	lea	ecx, DWORD PTR $T31287[ebp]
	call	DWORD PTR __imp_??1?$basic_string@DU?$char_traits@D@std@@V?$allocator@D@2@@std@@QAE@XZ
$LN2@asInt64:

; 812  : 	default:
; 813  : 		JSON_ASSERT_UNREACHABLE;
; 814  : 	}
; 815  : 	return 0; // unreachable;

	xor	eax, eax
	xor	edx, edx
$LN13@asInt64:

; 816  : }

	mov	ecx, DWORD PTR __$EHRec$[ebp]
	mov	DWORD PTR fs:0, ecx
	pop	ecx
	mov	esp, ebp
	pop	ebp
	ret	0
	npad	3
$LN18@asInt64:
	DD	$LN10@asInt64
	DD	$LN9@asInt64
	DD	$LN8@asInt64
	DD	$LN7@asInt64
	DD	$LN3@asInt64
	DD	$LN4@asInt64
	DD	$LN3@asInt64
	DD	$LN3@asInt64
_TEXT	ENDS
;	COMDAT text$x
text$x	SEGMENT
__unwindfunclet$?asInt64@Value@Json@@QBE_JXZ$0:
	lea	ecx, DWORD PTR $T31285[ebp]
	jmp	DWORD PTR __imp_??1?$basic_string@DU?$char_traits@D@std@@V?$allocator@D@2@@std@@QAE@XZ
__unwindfunclet$?asInt64@Value@Json@@QBE_JXZ$1:
	lea	ecx, DWORD PTR $T31287[ebp]
	jmp	DWORD PTR __imp_??1?$basic_string@DU?$char_traits@D@std@@V?$allocator@D@2@@std@@QAE@XZ
__ehhandler$?asInt64@Value@Json@@QBE_JXZ:
	mov	edx, DWORD PTR [esp+8]
	lea	eax, DWORD PTR [edx+12]
	mov	ecx, DWORD PTR [edx-164]
	xor	ecx, eax
	call	@__security_check_cookie@4
	mov	eax, OFFSET __ehfuncinfo$?asInt64@Value@Json@@QBE_JXZ
	jmp	___CxxFrameHandler3
text$x	ENDS
?asInt64@Value@Json@@QBE_JXZ ENDP			; Json::Value::asInt64
PUBLIC	?asUInt64@Value@Json@@QBE_KXZ			; Json::Value::asUInt64
;	COMDAT xdata$x
xdata$x	SEGMENT
__unwindtable$?asUInt64@Value@Json@@QBE_KXZ DD 0ffffffffH
	DD	FLAT:__unwindfunclet$?asUInt64@Value@Json@@QBE_KXZ$0
	DD	0ffffffffH
	DD	FLAT:__unwindfunclet$?asUInt64@Value@Json@@QBE_KXZ$1
	DD	0ffffffffH
	DD	FLAT:__unwindfunclet$?asUInt64@Value@Json@@QBE_KXZ$2
__ehfuncinfo$?asUInt64@Value@Json@@QBE_KXZ DD 019930522H
	DD	03H
	DD	FLAT:__unwindtable$?asUInt64@Value@Json@@QBE_KXZ
	DD	2 DUP(00H)
	DD	2 DUP(00H)
	DD	00H
	DD	01H
; Function compile flags: /Odtp
xdata$x	ENDS
;	COMDAT ?asUInt64@Value@Json@@QBE_KXZ
_TEXT	SEGMENT
tv175 = -244						; size = 8
tv173 = -236						; size = 4
tv170 = -230						; size = 2
tv141 = -228						; size = 4
tv67 = -224						; size = 4
_this$ = -220						; size = 4
$T31304 = -216						; size = 28
$T31303 = -188						; size = 40
$T31302 = -148						; size = 28
$T31301 = -120						; size = 40
$T31300 = -80						; size = 28
$T31299 = -52						; size = 40
__$EHRec$ = -12						; size = 12
?asUInt64@Value@Json@@QBE_KXZ PROC			; Json::Value::asUInt64, COMDAT
; _this$ = ecx

; 819  : {

	push	ebp
	mov	ebp, esp
	push	-1
	push	__ehhandler$?asUInt64@Value@Json@@QBE_KXZ
	mov	eax, DWORD PTR fs:0
	push	eax
	sub	esp, 232				; 000000e8H
	mov	eax, DWORD PTR ___security_cookie
	xor	eax, ebp
	push	eax
	lea	eax, DWORD PTR __$EHRec$[ebp]
	mov	DWORD PTR fs:0, eax
	mov	DWORD PTR _this$[ebp], ecx

; 820  : 	switch ( type_ )

	mov	eax, DWORD PTR _this$[ebp]
	mov	ecx, DWORD PTR [eax+8]
	shl	ecx, 24					; 00000018H
	sar	ecx, 24					; 00000018H
	mov	DWORD PTR tv67[ebp], ecx
	cmp	DWORD PTR tv67[ebp], 7
	ja	$LN2@asUInt64
	mov	edx, DWORD PTR tv67[ebp]
	jmp	DWORD PTR $LN21@asUInt64[edx*4]
$LN11@asUInt64:

; 821  : 	{
; 822  : 	case nullValue:
; 823  : 		return 0;

	xor	eax, eax
	xor	edx, edx
	jmp	$LN14@asUInt64
$LN10@asUInt64:

; 824  : 	case intValue:
; 825  : 		JSON_ASSERT_MESSAGE( value_.int_ >= 0, "Negative integer can not be converted to unsigned integer" );

	mov	eax, DWORD PTR _this$[ebp]
	mov	DWORD PTR tv141[ebp], eax
	mov	ecx, DWORD PTR tv141[ebp]
	cmp	DWORD PTR [ecx+4], 0
	jg	SHORT $LN9@asUInt64
	jl	SHORT $LN19@asUInt64
	mov	edx, DWORD PTR tv141[ebp]
	cmp	DWORD PTR [edx], 0
	jae	SHORT $LN9@asUInt64
$LN19@asUInt64:
	push	OFFSET ??_C@_0DK@NAHIGMFE@Negative?5integer?5can?5not?5be?5conv@
	lea	ecx, DWORD PTR $T31300[ebp]
	call	DWORD PTR __imp_??0?$basic_string@DU?$char_traits@D@std@@V?$allocator@D@2@@std@@QAE@PBD@Z
	mov	DWORD PTR __$EHRec$[ebp+8], 0
	lea	eax, DWORD PTR $T31300[ebp]
	push	eax
	lea	ecx, DWORD PTR $T31299[ebp]
	call	??0runtime_error@std@@QAE@ABV?$basic_string@DU?$char_traits@D@std@@V?$allocator@D@2@@1@@Z ; std::runtime_error::runtime_error
	push	OFFSET __TI2?AVruntime_error@std@@
	lea	ecx, DWORD PTR $T31299[ebp]
	push	ecx
	call	__CxxThrowException@8
	mov	DWORD PTR __$EHRec$[ebp+8], -1
	lea	ecx, DWORD PTR $T31300[ebp]
	call	DWORD PTR __imp_??1?$basic_string@DU?$char_traits@D@std@@V?$allocator@D@2@@std@@QAE@XZ
$LN9@asUInt64:

; 826  : 		return (value_.int_);

	mov	edx, DWORD PTR _this$[ebp]
	mov	eax, DWORD PTR [edx]
	mov	edx, DWORD PTR [edx+4]
	jmp	$LN14@asUInt64
$LN8@asUInt64:

; 827  : 	case uintValue:
; 828  : 		return (value_.uint_);

	mov	ecx, DWORD PTR _this$[ebp]
	mov	eax, DWORD PTR [ecx]
	mov	edx, DWORD PTR [ecx+4]
	jmp	$LN14@asUInt64
$LN7@asUInt64:

; 829  : 	case realValue:
; 830  : 		JSON_ASSERT_MESSAGE( value_.real_ >= 0  &&  value_.real_ <= maxUInt,  "Real out of unsigned integer range" );

	mov	edx, DWORD PTR _this$[ebp]
	fldz
	fcomp	QWORD PTR [edx]
	fnstsw	ax
	test	ah, 65					; 00000041H
	jp	SHORT $LN5@asUInt64
	mov	eax, DWORD PTR _this$[ebp]
	fld	QWORD PTR __real@41efffffffe00000
	fcomp	QWORD PTR [eax]
	fnstsw	ax
	test	ah, 1
	je	SHORT $LN6@asUInt64
$LN5@asUInt64:
	push	OFFSET ??_C@_0CD@PGCLDEBG@Real?5out?5of?5unsigned?5integer?5ran@
	lea	ecx, DWORD PTR $T31302[ebp]
	call	DWORD PTR __imp_??0?$basic_string@DU?$char_traits@D@std@@V?$allocator@D@2@@std@@QAE@PBD@Z
	mov	DWORD PTR __$EHRec$[ebp+8], 1
	lea	ecx, DWORD PTR $T31302[ebp]
	push	ecx
	lea	ecx, DWORD PTR $T31301[ebp]
	call	??0runtime_error@std@@QAE@ABV?$basic_string@DU?$char_traits@D@std@@V?$allocator@D@2@@1@@Z ; std::runtime_error::runtime_error
	push	OFFSET __TI2?AVruntime_error@std@@
	lea	edx, DWORD PTR $T31301[ebp]
	push	edx
	call	__CxxThrowException@8
	mov	DWORD PTR __$EHRec$[ebp+8], -1
	lea	ecx, DWORD PTR $T31302[ebp]
	call	DWORD PTR __imp_??1?$basic_string@DU?$char_traits@D@std@@V?$allocator@D@2@@std@@QAE@XZ
$LN6@asUInt64:

; 831  : 		return UInt( value_.real_ );

	mov	eax, DWORD PTR _this$[ebp]
	fld	QWORD PTR [eax]
	fnstcw	WORD PTR tv170[ebp]
	movzx	eax, WORD PTR tv170[ebp]
	or	eax, 3072				; 00000c00H
	mov	DWORD PTR tv173[ebp], eax
	fldcw	WORD PTR tv173[ebp]
	fistp	QWORD PTR tv175[ebp]
	fldcw	WORD PTR tv170[ebp]
	mov	eax, DWORD PTR tv175[ebp]
	xor	edx, edx
	jmp	SHORT $LN14@asUInt64
$LN4@asUInt64:

; 832  : 	case booleanValue:
; 833  : 		return value_.bool_ ? 1 : 0;

	mov	ecx, DWORD PTR _this$[ebp]
	movzx	eax, BYTE PTR [ecx]
	neg	eax
	sbb	eax, eax
	neg	eax
	cdq
	jmp	SHORT $LN14@asUInt64
$LN3@asUInt64:

; 834  : 	case stringValue:
; 835  : 	case arrayValue:
; 836  : 	case objectValue:
; 837  : 		JSON_ASSERT_MESSAGE( false, "Type is not convertible to uint" );

	mov	edx, 1
	test	edx, edx
	je	SHORT $LN2@asUInt64
	push	OFFSET ??_C@_0CA@LEFAEJPN@Type?5is?5not?5convertible?5to?5uint?$AA@
	lea	ecx, DWORD PTR $T31304[ebp]
	call	DWORD PTR __imp_??0?$basic_string@DU?$char_traits@D@std@@V?$allocator@D@2@@std@@QAE@PBD@Z
	mov	DWORD PTR __$EHRec$[ebp+8], 2
	lea	eax, DWORD PTR $T31304[ebp]
	push	eax
	lea	ecx, DWORD PTR $T31303[ebp]
	call	??0runtime_error@std@@QAE@ABV?$basic_string@DU?$char_traits@D@std@@V?$allocator@D@2@@1@@Z ; std::runtime_error::runtime_error
	push	OFFSET __TI2?AVruntime_error@std@@
	lea	ecx, DWORD PTR $T31303[ebp]
	push	ecx
	call	__CxxThrowException@8
	mov	DWORD PTR __$EHRec$[ebp+8], -1
	lea	ecx, DWORD PTR $T31304[ebp]
	call	DWORD PTR __imp_??1?$basic_string@DU?$char_traits@D@std@@V?$allocator@D@2@@std@@QAE@XZ
$LN2@asUInt64:

; 838  : 	default:
; 839  : 		JSON_ASSERT_UNREACHABLE;
; 840  : 	}
; 841  : 	return 0; // unreachable;

	xor	eax, eax
	xor	edx, edx
$LN14@asUInt64:

; 842  : }

	mov	ecx, DWORD PTR __$EHRec$[ebp]
	mov	DWORD PTR fs:0, ecx
	pop	ecx
	mov	esp, ebp
	pop	ebp
	ret	0
$LN21@asUInt64:
	DD	$LN11@asUInt64
	DD	$LN10@asUInt64
	DD	$LN8@asUInt64
	DD	$LN7@asUInt64
	DD	$LN3@asUInt64
	DD	$LN4@asUInt64
	DD	$LN3@asUInt64
	DD	$LN3@asUInt64
_TEXT	ENDS
;	COMDAT text$x
text$x	SEGMENT
__unwindfunclet$?asUInt64@Value@Json@@QBE_KXZ$0:
	lea	ecx, DWORD PTR $T31300[ebp]
	jmp	DWORD PTR __imp_??1?$basic_string@DU?$char_traits@D@std@@V?$allocator@D@2@@std@@QAE@XZ
__unwindfunclet$?asUInt64@Value@Json@@QBE_KXZ$1:
	lea	ecx, DWORD PTR $T31302[ebp]
	jmp	DWORD PTR __imp_??1?$basic_string@DU?$char_traits@D@std@@V?$allocator@D@2@@std@@QAE@XZ
__unwindfunclet$?asUInt64@Value@Json@@QBE_KXZ$2:
	lea	ecx, DWORD PTR $T31304[ebp]
	jmp	DWORD PTR __imp_??1?$basic_string@DU?$char_traits@D@std@@V?$allocator@D@2@@std@@QAE@XZ
__ehhandler$?asUInt64@Value@Json@@QBE_KXZ:
	mov	edx, DWORD PTR [esp+8]
	lea	eax, DWORD PTR [edx+12]
	mov	ecx, DWORD PTR [edx-236]
	xor	ecx, eax
	call	@__security_check_cookie@4
	mov	eax, OFFSET __ehfuncinfo$?asUInt64@Value@Json@@QBE_KXZ
	jmp	___CxxFrameHandler3
text$x	ENDS
?asUInt64@Value@Json@@QBE_KXZ ENDP			; Json::Value::asUInt64
PUBLIC	??_C@_0CC@ICOHKFIF@Type?5is?5not?5convertible?5to?5doubl@ ; `string'
PUBLIC	__real@3ff0000000000000
PUBLIC	?asDouble@Value@Json@@QBENXZ			; Json::Value::asDouble
;	COMDAT ??_C@_0CC@ICOHKFIF@Type?5is?5not?5convertible?5to?5doubl@
CONST	SEGMENT
??_C@_0CC@ICOHKFIF@Type?5is?5not?5convertible?5to?5doubl@ DB 'Type is not'
	DB	' convertible to double', 00H		; `string'
CONST	ENDS
;	COMDAT __real@3ff0000000000000
CONST	SEGMENT
__real@3ff0000000000000 DQ 03ff0000000000000r	; 1
CONST	ENDS
;	COMDAT xdata$x
xdata$x	SEGMENT
__unwindtable$?asDouble@Value@Json@@QBENXZ DD 0ffffffffH
	DD	FLAT:__unwindfunclet$?asDouble@Value@Json@@QBENXZ$0
__ehfuncinfo$?asDouble@Value@Json@@QBENXZ DD 019930522H
	DD	01H
	DD	FLAT:__unwindtable$?asDouble@Value@Json@@QBENXZ
	DD	2 DUP(00H)
	DD	2 DUP(00H)
	DD	00H
	DD	01H
; Function compile flags: /Odtp
xdata$x	ENDS
;	COMDAT ?asDouble@Value@Json@@QBENXZ
_TEXT	SEGMENT
tv74 = -104						; size = 8
tv93 = -96						; size = 4
tv90 = -92						; size = 4
tv67 = -88						; size = 4
_this$ = -84						; size = 4
$T31321 = -80						; size = 28
$T31320 = -52						; size = 40
__$EHRec$ = -12						; size = 12
?asDouble@Value@Json@@QBENXZ PROC			; Json::Value::asDouble, COMDAT
; _this$ = ecx

; 846  : {

	push	ebp
	mov	ebp, esp
	push	-1
	push	__ehhandler$?asDouble@Value@Json@@QBENXZ
	mov	eax, DWORD PTR fs:0
	push	eax
	sub	esp, 92					; 0000005cH
	mov	eax, DWORD PTR ___security_cookie
	xor	eax, ebp
	push	eax
	lea	eax, DWORD PTR __$EHRec$[ebp]
	mov	DWORD PTR fs:0, eax
	mov	DWORD PTR _this$[ebp], ecx

; 847  :    switch ( type_ )

	mov	eax, DWORD PTR _this$[ebp]
	mov	ecx, DWORD PTR [eax+8]
	shl	ecx, 24					; 00000018H
	sar	ecx, 24					; 00000018H
	mov	DWORD PTR tv67[ebp], ecx
	cmp	DWORD PTR tv67[ebp], 7
	ja	$LN2@asDouble
	mov	edx, DWORD PTR tv67[ebp]
	jmp	DWORD PTR $LN17@asDouble[edx*4]
$LN8@asDouble:

; 848  :    {
; 849  :    case nullValue:
; 850  :       return 0.0;

	fldz
	jmp	$LN11@asDouble
$LN7@asDouble:

; 851  :    case intValue:
; 852  :       return static_cast<Value::Int>(value_.int_);

	mov	eax, DWORD PTR _this$[ebp]
	mov	ecx, DWORD PTR [eax]
	mov	DWORD PTR tv90[ebp], ecx
	fild	DWORD PTR tv90[ebp]
	jmp	SHORT $LN11@asDouble
$LN6@asDouble:

; 853  :    case uintValue:
; 854  :       return static_cast<Value::Int>(value_.uint_);

	mov	edx, DWORD PTR _this$[ebp]
	mov	eax, DWORD PTR [edx]
	mov	DWORD PTR tv93[ebp], eax
	fild	DWORD PTR tv93[ebp]
	jmp	SHORT $LN11@asDouble
$LN5@asDouble:

; 855  :    case realValue:
; 856  :       return value_.real_;

	mov	ecx, DWORD PTR _this$[ebp]
	fld	QWORD PTR [ecx]
	jmp	SHORT $LN11@asDouble
$LN4@asDouble:

; 857  :    case booleanValue:
; 858  :       return value_.bool_ ? 1.0 : 0.0;

	mov	edx, DWORD PTR _this$[ebp]
	movzx	eax, BYTE PTR [edx]
	test	eax, eax
	je	SHORT $LN13@asDouble
	fld1
	fstp	QWORD PTR tv74[ebp]
	jmp	SHORT $LN14@asDouble
$LN13@asDouble:
	fldz
	fstp	QWORD PTR tv74[ebp]
$LN14@asDouble:
	fld	QWORD PTR tv74[ebp]
	jmp	SHORT $LN11@asDouble
$LN3@asDouble:

; 859  :    case stringValue:
; 860  :    case arrayValue:
; 861  :    case objectValue:
; 862  :       JSON_ASSERT_MESSAGE( false, "Type is not convertible to double" );

	mov	ecx, 1
	test	ecx, ecx
	je	SHORT $LN2@asDouble
	push	OFFSET ??_C@_0CC@ICOHKFIF@Type?5is?5not?5convertible?5to?5doubl@
	lea	ecx, DWORD PTR $T31321[ebp]
	call	DWORD PTR __imp_??0?$basic_string@DU?$char_traits@D@std@@V?$allocator@D@2@@std@@QAE@PBD@Z
	mov	DWORD PTR __$EHRec$[ebp+8], 0
	lea	edx, DWORD PTR $T31321[ebp]
	push	edx
	lea	ecx, DWORD PTR $T31320[ebp]
	call	??0runtime_error@std@@QAE@ABV?$basic_string@DU?$char_traits@D@std@@V?$allocator@D@2@@1@@Z ; std::runtime_error::runtime_error
	push	OFFSET __TI2?AVruntime_error@std@@
	lea	eax, DWORD PTR $T31320[ebp]
	push	eax
	call	__CxxThrowException@8
	mov	DWORD PTR __$EHRec$[ebp+8], -1
	lea	ecx, DWORD PTR $T31321[ebp]
	call	DWORD PTR __imp_??1?$basic_string@DU?$char_traits@D@std@@V?$allocator@D@2@@std@@QAE@XZ
$LN2@asDouble:

; 863  :    default:
; 864  :       JSON_ASSERT_UNREACHABLE;
; 865  :    }
; 866  :    return 0; // unreachable;

	fldz
$LN11@asDouble:

; 867  : }

	mov	ecx, DWORD PTR __$EHRec$[ebp]
	mov	DWORD PTR fs:0, ecx
	pop	ecx
	mov	esp, ebp
	pop	ebp
	ret	0
	npad	1
$LN17@asDouble:
	DD	$LN8@asDouble
	DD	$LN7@asDouble
	DD	$LN6@asDouble
	DD	$LN5@asDouble
	DD	$LN3@asDouble
	DD	$LN4@asDouble
	DD	$LN3@asDouble
	DD	$LN3@asDouble
_TEXT	ENDS
;	COMDAT text$x
text$x	SEGMENT
__unwindfunclet$?asDouble@Value@Json@@QBENXZ$0:
	lea	ecx, DWORD PTR $T31321[ebp]
	jmp	DWORD PTR __imp_??1?$basic_string@DU?$char_traits@D@std@@V?$allocator@D@2@@std@@QAE@XZ
__ehhandler$?asDouble@Value@Json@@QBENXZ:
	mov	edx, DWORD PTR [esp+8]
	lea	eax, DWORD PTR [edx+12]
	mov	ecx, DWORD PTR [edx-96]
	xor	ecx, eax
	call	@__security_check_cookie@4
	mov	eax, OFFSET __ehfuncinfo$?asDouble@Value@Json@@QBENXZ
	jmp	___CxxFrameHandler3
text$x	ENDS
?asDouble@Value@Json@@QBENXZ ENDP			; Json::Value::asDouble
PUBLIC	?asBool@Value@Json@@QBE_NXZ			; Json::Value::asBool
; Function compile flags: /Odtp
;	COMDAT ?asBool@Value@Json@@QBE_NXZ
_TEXT	SEGMENT
tv78 = -24						; size = 4
tv72 = -20						; size = 4
tv69 = -16						; size = 4
tv91 = -12						; size = 4
tv67 = -8						; size = 4
_this$ = -4						; size = 4
?asBool@Value@Json@@QBE_NXZ PROC			; Json::Value::asBool, COMDAT
; _this$ = ecx

; 871  : {

	push	ebp
	mov	ebp, esp
	sub	esp, 24					; 00000018H
	mov	DWORD PTR _this$[ebp], ecx

; 872  :    switch ( type_ )

	mov	eax, DWORD PTR _this$[ebp]
	mov	ecx, DWORD PTR [eax+8]
	shl	ecx, 24					; 00000018H
	sar	ecx, 24					; 00000018H
	mov	DWORD PTR tv67[ebp], ecx
	cmp	DWORD PTR tv67[ebp], 7
	ja	$LN1@asBool
	mov	edx, DWORD PTR tv67[ebp]
	jmp	DWORD PTR $LN18@asBool[edx*4]
$LN7@asBool:

; 873  :    {
; 874  :    case nullValue:
; 875  :       return false;

	xor	al, al
	jmp	$LN10@asBool
$LN6@asBool:

; 876  :    case intValue:
; 877  :    case uintValue:
; 878  :       return value_.int_ != 0;

	mov	eax, DWORD PTR _this$[ebp]
	mov	DWORD PTR tv91[ebp], eax
	mov	ecx, DWORD PTR tv91[ebp]
	mov	edx, DWORD PTR tv91[ebp]
	mov	eax, DWORD PTR [ecx]
	or	eax, DWORD PTR [edx+4]
	je	SHORT $LN12@asBool
	mov	DWORD PTR tv69[ebp], 1
	jmp	SHORT $LN13@asBool
$LN12@asBool:
	mov	DWORD PTR tv69[ebp], 0
$LN13@asBool:
	mov	al, BYTE PTR tv69[ebp]
	jmp	SHORT $LN10@asBool
$LN5@asBool:

; 879  :    case realValue:
; 880  :       return value_.real_ != 0.0;

	mov	ecx, DWORD PTR _this$[ebp]
	fldz
	fcomp	QWORD PTR [ecx]
	fnstsw	ax
	test	ah, 68					; 00000044H
	jnp	SHORT $LN14@asBool
	mov	DWORD PTR tv72[ebp], 1
	jmp	SHORT $LN15@asBool
$LN14@asBool:
	mov	DWORD PTR tv72[ebp], 0
$LN15@asBool:
	mov	al, BYTE PTR tv72[ebp]
	jmp	SHORT $LN10@asBool
$LN4@asBool:

; 881  :    case booleanValue:
; 882  :       return value_.bool_;

	mov	edx, DWORD PTR _this$[ebp]
	mov	al, BYTE PTR [edx]
	jmp	SHORT $LN10@asBool
$LN3@asBool:

; 883  :    case stringValue:
; 884  :       return value_.string_  &&  value_.string_[0] != 0;

	mov	eax, DWORD PTR _this$[ebp]
	cmp	DWORD PTR [eax], 0
	je	SHORT $LN16@asBool
	mov	ecx, DWORD PTR _this$[ebp]
	mov	edx, DWORD PTR [ecx]
	movsx	eax, BYTE PTR [edx]
	test	eax, eax
	je	SHORT $LN16@asBool
	mov	DWORD PTR tv78[ebp], 1
	jmp	SHORT $LN17@asBool
$LN16@asBool:
	mov	DWORD PTR tv78[ebp], 0
$LN17@asBool:
	mov	al, BYTE PTR tv78[ebp]
	jmp	SHORT $LN10@asBool
$LN2@asBool:

; 885  :    case arrayValue:
; 886  :    case objectValue:
; 887  :       return value_.map_->size() != 0;

	mov	ecx, DWORD PTR _this$[ebp]
	mov	ecx, DWORD PTR [ecx]
	call	?size@?$_Tree@V?$_Tmap_traits@VCZString@Value@Json@@V23@U?$less@VCZString@Value@Json@@@std@@V?$allocator@U?$pair@$$CBVCZString@Value@Json@@V23@@std@@@5@$0A@@std@@@std@@QBEIXZ ; std::_Tree<std::_Tmap_traits<Json::Value::CZString,Json::Value,std::less<Json::Value::CZString>,std::allocator<std::pair<Json::Value::CZString const ,Json::Value> >,0> >::size
	neg	eax
	sbb	eax, eax
	neg	eax
	jmp	SHORT $LN10@asBool
$LN1@asBool:

; 888  :    default:
; 889  :       JSON_ASSERT_UNREACHABLE;
; 890  :    }
; 891  :    return false; // unreachable;

	xor	al, al
$LN10@asBool:

; 892  : }

	mov	esp, ebp
	pop	ebp
	ret	0
	npad	2
$LN18@asBool:
	DD	$LN7@asBool
	DD	$LN6@asBool
	DD	$LN6@asBool
	DD	$LN5@asBool
	DD	$LN3@asBool
	DD	$LN4@asBool
	DD	$LN2@asBool
	DD	$LN2@asBool
?asBool@Value@Json@@QBE_NXZ ENDP			; Json::Value::asBool
_TEXT	ENDS
PUBLIC	?isConvertibleTo@Value@Json@@QBE_NW4ValueType@2@@Z ; Json::Value::isConvertibleTo
; Function compile flags: /Odtp
;	COMDAT ?isConvertibleTo@Value@Json@@QBE_NW4ValueType@2@@Z
_TEXT	SEGMENT
tv163 = -52						; size = 4
tv156 = -48						; size = 4
tv149 = -44						; size = 4
tv141 = -40						; size = 4
tv131 = -36						; size = 4
tv86 = -32						; size = 4
tv192 = -28						; size = 4
tv185 = -24						; size = 4
tv76 = -20						; size = 4
tv178 = -16						; size = 4
tv171 = -12						; size = 4
tv67 = -8						; size = 4
_this$ = -4						; size = 4
_other$ = 8						; size = 4
?isConvertibleTo@Value@Json@@QBE_NW4ValueType@2@@Z PROC	; Json::Value::isConvertibleTo, COMDAT
; _this$ = ecx

; 897  : {

	push	ebp
	mov	ebp, esp
	sub	esp, 52					; 00000034H
	mov	DWORD PTR _this$[ebp], ecx

; 898  :    switch ( type_ )

	mov	eax, DWORD PTR _this$[ebp]
	mov	ecx, DWORD PTR [eax+8]
	shl	ecx, 24					; 00000018H
	sar	ecx, 24					; 00000018H
	mov	DWORD PTR tv67[ebp], ecx
	cmp	DWORD PTR tv67[ebp], 7
	ja	$LN1@isConverti
	mov	edx, DWORD PTR tv67[ebp]
	jmp	DWORD PTR $LN42@isConverti[edx*4]
$LN9@isConverti:

; 899  :    {
; 900  :    case nullValue:
; 901  :       return true;

	mov	al, 1
	jmp	$LN12@isConverti
$LN8@isConverti:

; 902  :    case intValue:
; 903  :       return ( other == nullValue  &&  value_.int_ == 0 )
; 904  :              || other == intValue
; 905  :              || ( other == uintValue  && value_.int_ >= 0 )
; 906  :              || other == realValue
; 907  :              || other == stringValue
; 908  :              || other == booleanValue;

	cmp	DWORD PTR _other$[ebp], 0
	jne	SHORT $LN14@isConverti
	mov	eax, DWORD PTR _this$[ebp]
	mov	DWORD PTR tv171[ebp], eax
	mov	ecx, DWORD PTR tv171[ebp]
	mov	edx, DWORD PTR tv171[ebp]
	mov	eax, DWORD PTR [ecx]
	or	eax, DWORD PTR [edx+4]
	je	SHORT $LN15@isConverti
$LN14@isConverti:
	cmp	DWORD PTR _other$[ebp], 1
	je	SHORT $LN15@isConverti
	cmp	DWORD PTR _other$[ebp], 2
	jne	SHORT $LN40@isConverti
	mov	ecx, DWORD PTR _this$[ebp]
	mov	DWORD PTR tv178[ebp], ecx
	mov	edx, DWORD PTR tv178[ebp]
	cmp	DWORD PTR [edx+4], 0
	jg	SHORT $LN15@isConverti
	jl	SHORT $LN40@isConverti
	mov	eax, DWORD PTR tv178[ebp]
	cmp	DWORD PTR [eax], 0
	jae	SHORT $LN15@isConverti
$LN40@isConverti:
	cmp	DWORD PTR _other$[ebp], 3
	je	SHORT $LN15@isConverti
	cmp	DWORD PTR _other$[ebp], 4
	je	SHORT $LN15@isConverti
	cmp	DWORD PTR _other$[ebp], 5
	je	SHORT $LN15@isConverti
	mov	DWORD PTR tv76[ebp], 0
	jmp	SHORT $LN17@isConverti
$LN15@isConverti:
	mov	DWORD PTR tv76[ebp], 1
$LN17@isConverti:
	mov	al, BYTE PTR tv76[ebp]
	jmp	$LN12@isConverti
$LN7@isConverti:

; 909  :    case uintValue:
; 910  :       return ( other == nullValue  &&  value_.uint_ == 0 )
; 911  :              || ( other == intValue  && value_.uint_ <= (unsigned)maxInt )
; 912  :              || other == uintValue
; 913  :              || other == realValue
; 914  :              || other == stringValue
; 915  :              || other == booleanValue;

	cmp	DWORD PTR _other$[ebp], 0
	jne	SHORT $LN18@isConverti
	mov	ecx, DWORD PTR _this$[ebp]
	mov	DWORD PTR tv185[ebp], ecx
	mov	edx, DWORD PTR tv185[ebp]
	mov	eax, DWORD PTR tv185[ebp]
	mov	ecx, DWORD PTR [edx]
	or	ecx, DWORD PTR [eax+4]
	je	SHORT $LN20@isConverti
$LN18@isConverti:
	cmp	DWORD PTR _other$[ebp], 1
	jne	SHORT $LN41@isConverti
	mov	edx, DWORD PTR _this$[ebp]
	mov	DWORD PTR tv192[ebp], edx
	mov	eax, DWORD PTR tv192[ebp]
	cmp	DWORD PTR [eax+4], 0
	ja	SHORT $LN41@isConverti
	mov	ecx, DWORD PTR tv192[ebp]
	cmp	DWORD PTR [ecx], 2147483647		; 7fffffffH
	jbe	SHORT $LN20@isConverti
$LN41@isConverti:
	cmp	DWORD PTR _other$[ebp], 2
	je	SHORT $LN20@isConverti
	cmp	DWORD PTR _other$[ebp], 3
	je	SHORT $LN20@isConverti
	cmp	DWORD PTR _other$[ebp], 4
	je	SHORT $LN20@isConverti
	cmp	DWORD PTR _other$[ebp], 5
	je	SHORT $LN20@isConverti
	mov	DWORD PTR tv86[ebp], 0
	jmp	SHORT $LN21@isConverti
$LN20@isConverti:
	mov	DWORD PTR tv86[ebp], 1
$LN21@isConverti:
	mov	al, BYTE PTR tv86[ebp]
	jmp	$LN12@isConverti
$LN6@isConverti:

; 916  :    case realValue:
; 917  :       return ( other == nullValue  &&  value_.real_ == 0.0 )
; 918  :              || ( other == intValue  &&  value_.real_ >= minInt  &&  value_.real_ <= maxInt )
; 919  :              || ( other == uintValue  &&  value_.real_ >= 0  &&  value_.real_ <= maxUInt )
; 920  :              || other == realValue
; 921  :              || other == stringValue
; 922  :              || other == booleanValue;

	cmp	DWORD PTR _other$[ebp], 0
	jne	SHORT $LN22@isConverti
	mov	edx, DWORD PTR _this$[ebp]
	fldz
	fcomp	QWORD PTR [edx]
	fnstsw	ax
	test	ah, 68					; 00000044H
	jnp	SHORT $LN24@isConverti
$LN22@isConverti:
	cmp	DWORD PTR _other$[ebp], 1
	jne	SHORT $LN23@isConverti
	mov	eax, DWORD PTR _this$[ebp]
	fld	QWORD PTR __real@c1e0000000000000
	fcomp	QWORD PTR [eax]
	fnstsw	ax
	test	ah, 65					; 00000041H
	jp	SHORT $LN23@isConverti
	mov	ecx, DWORD PTR _this$[ebp]
	fld	QWORD PTR __real@41dfffffffc00000
	fcomp	QWORD PTR [ecx]
	fnstsw	ax
	test	ah, 1
	je	SHORT $LN24@isConverti
$LN23@isConverti:
	cmp	DWORD PTR _other$[ebp], 2
	jne	SHORT $LN25@isConverti
	mov	edx, DWORD PTR _this$[ebp]
	fldz
	fcomp	QWORD PTR [edx]
	fnstsw	ax
	test	ah, 65					; 00000041H
	jp	SHORT $LN25@isConverti
	mov	eax, DWORD PTR _this$[ebp]
	fld	QWORD PTR __real@41efffffffe00000
	fcomp	QWORD PTR [eax]
	fnstsw	ax
	test	ah, 1
	je	SHORT $LN24@isConverti
$LN25@isConverti:
	cmp	DWORD PTR _other$[ebp], 3
	je	SHORT $LN24@isConverti
	cmp	DWORD PTR _other$[ebp], 4
	je	SHORT $LN24@isConverti
	cmp	DWORD PTR _other$[ebp], 5
	je	SHORT $LN24@isConverti
	mov	DWORD PTR tv131[ebp], 0
	jmp	SHORT $LN26@isConverti
$LN24@isConverti:
	mov	DWORD PTR tv131[ebp], 1
$LN26@isConverti:
	mov	al, BYTE PTR tv131[ebp]
	jmp	$LN12@isConverti
$LN5@isConverti:

; 923  :    case booleanValue:
; 924  :       return ( other == nullValue  &&  value_.bool_ == false )
; 925  :              || other == intValue
; 926  :              || other == uintValue
; 927  :              || other == realValue
; 928  :              || other == stringValue
; 929  :              || other == booleanValue;

	cmp	DWORD PTR _other$[ebp], 0
	jne	SHORT $LN27@isConverti
	mov	ecx, DWORD PTR _this$[ebp]
	movzx	edx, BYTE PTR [ecx]
	test	edx, edx
	je	SHORT $LN28@isConverti
$LN27@isConverti:
	cmp	DWORD PTR _other$[ebp], 1
	je	SHORT $LN28@isConverti
	cmp	DWORD PTR _other$[ebp], 2
	je	SHORT $LN28@isConverti
	cmp	DWORD PTR _other$[ebp], 3
	je	SHORT $LN28@isConverti
	cmp	DWORD PTR _other$[ebp], 4
	je	SHORT $LN28@isConverti
	cmp	DWORD PTR _other$[ebp], 5
	je	SHORT $LN28@isConverti
	mov	DWORD PTR tv141[ebp], 0
	jmp	SHORT $LN29@isConverti
$LN28@isConverti:
	mov	DWORD PTR tv141[ebp], 1
$LN29@isConverti:
	mov	al, BYTE PTR tv141[ebp]
	jmp	$LN12@isConverti
$LN4@isConverti:

; 930  :    case stringValue:
; 931  :       return other == stringValue
; 932  :              || ( other == nullValue  &&  (!value_.string_  ||  value_.string_[0] == 0) );

	cmp	DWORD PTR _other$[ebp], 4
	je	SHORT $LN32@isConverti
	cmp	DWORD PTR _other$[ebp], 0
	jne	SHORT $LN31@isConverti
	mov	eax, DWORD PTR _this$[ebp]
	cmp	DWORD PTR [eax], 0
	je	SHORT $LN32@isConverti
	mov	ecx, DWORD PTR _this$[ebp]
	mov	edx, DWORD PTR [ecx]
	movsx	eax, BYTE PTR [edx]
	test	eax, eax
	je	SHORT $LN32@isConverti
$LN31@isConverti:
	mov	DWORD PTR tv149[ebp], 0
	jmp	SHORT $LN33@isConverti
$LN32@isConverti:
	mov	DWORD PTR tv149[ebp], 1
$LN33@isConverti:
	mov	al, BYTE PTR tv149[ebp]
	jmp	SHORT $LN12@isConverti
$LN3@isConverti:

; 933  :    case arrayValue:
; 934  :       return other == arrayValue
; 935  :              ||  ( other == nullValue  &&  value_.map_->size() == 0 );

	cmp	DWORD PTR _other$[ebp], 6
	je	SHORT $LN35@isConverti
	cmp	DWORD PTR _other$[ebp], 0
	jne	SHORT $LN34@isConverti
	mov	ecx, DWORD PTR _this$[ebp]
	mov	ecx, DWORD PTR [ecx]
	call	?size@?$_Tree@V?$_Tmap_traits@VCZString@Value@Json@@V23@U?$less@VCZString@Value@Json@@@std@@V?$allocator@U?$pair@$$CBVCZString@Value@Json@@V23@@std@@@5@$0A@@std@@@std@@QBEIXZ ; std::_Tree<std::_Tmap_traits<Json::Value::CZString,Json::Value,std::less<Json::Value::CZString>,std::allocator<std::pair<Json::Value::CZString const ,Json::Value> >,0> >::size
	test	eax, eax
	je	SHORT $LN35@isConverti
$LN34@isConverti:
	mov	DWORD PTR tv156[ebp], 0
	jmp	SHORT $LN36@isConverti
$LN35@isConverti:
	mov	DWORD PTR tv156[ebp], 1
$LN36@isConverti:
	mov	al, BYTE PTR tv156[ebp]
	jmp	SHORT $LN12@isConverti
$LN2@isConverti:

; 936  :    case objectValue:
; 937  :       return other == objectValue
; 938  :              ||  ( other == nullValue  &&  value_.map_->size() == 0 );

	cmp	DWORD PTR _other$[ebp], 7
	je	SHORT $LN38@isConverti
	cmp	DWORD PTR _other$[ebp], 0
	jne	SHORT $LN37@isConverti
	mov	edx, DWORD PTR _this$[ebp]
	mov	ecx, DWORD PTR [edx]
	call	?size@?$_Tree@V?$_Tmap_traits@VCZString@Value@Json@@V23@U?$less@VCZString@Value@Json@@@std@@V?$allocator@U?$pair@$$CBVCZString@Value@Json@@V23@@std@@@5@$0A@@std@@@std@@QBEIXZ ; std::_Tree<std::_Tmap_traits<Json::Value::CZString,Json::Value,std::less<Json::Value::CZString>,std::allocator<std::pair<Json::Value::CZString const ,Json::Value> >,0> >::size
	test	eax, eax
	je	SHORT $LN38@isConverti
$LN37@isConverti:
	mov	DWORD PTR tv163[ebp], 0
	jmp	SHORT $LN39@isConverti
$LN38@isConverti:
	mov	DWORD PTR tv163[ebp], 1
$LN39@isConverti:
	mov	al, BYTE PTR tv163[ebp]
	jmp	SHORT $LN12@isConverti
$LN1@isConverti:

; 939  :    default:
; 940  :       JSON_ASSERT_UNREACHABLE;
; 941  :    }
; 942  :    return false; // unreachable;

	xor	al, al
$LN12@isConverti:

; 943  : }

	mov	esp, ebp
	pop	ebp
	ret	4
	npad	1
$LN42@isConverti:
	DD	$LN9@isConverti
	DD	$LN8@isConverti
	DD	$LN7@isConverti
	DD	$LN6@isConverti
	DD	$LN4@isConverti
	DD	$LN5@isConverti
	DD	$LN3@isConverti
	DD	$LN2@isConverti
?isConvertibleTo@Value@Json@@QBE_NW4ValueType@2@@Z ENDP	; Json::Value::isConvertibleTo
_TEXT	ENDS
PUBLIC	??Dconst_iterator@?$_Tree@V?$_Tmap_traits@VCZString@Value@Json@@V23@U?$less@VCZString@Value@Json@@@std@@V?$allocator@U?$pair@$$CBVCZString@Value@Json@@V23@@std@@@5@$0A@@std@@@std@@QBEABU?$pair@$$CBVCZString@Value@Json@@V23@@2@XZ ; std::_Tree<std::_Tmap_traits<Json::Value::CZString,Json::Value,std::less<Json::Value::CZString>,std::allocator<std::pair<Json::Value::CZString const ,Json::Value> >,0> >::const_iterator::operator*
PUBLIC	??Fconst_iterator@?$_Tree@V?$_Tmap_traits@VCZString@Value@Json@@V23@U?$less@VCZString@Value@Json@@@std@@V?$allocator@U?$pair@$$CBVCZString@Value@Json@@V23@@std@@@5@$0A@@std@@@std@@QAEAAV012@XZ ; std::_Tree<std::_Tmap_traits<Json::Value::CZString,Json::Value,std::less<Json::Value::CZString>,std::allocator<std::pair<Json::Value::CZString const ,Json::Value> >,0> >::const_iterator::operator--
PUBLIC	?end@?$_Tree@V?$_Tmap_traits@VCZString@Value@Json@@V23@U?$less@VCZString@Value@Json@@@std@@V?$allocator@U?$pair@$$CBVCZString@Value@Json@@V23@@std@@@5@$0A@@std@@@std@@QAE?AViterator@12@XZ ; std::_Tree<std::_Tmap_traits<Json::Value::CZString,Json::Value,std::less<Json::Value::CZString>,std::allocator<std::pair<Json::Value::CZString const ,Json::Value> >,0> >::end
PUBLIC	?empty@?$_Tree@V?$_Tmap_traits@VCZString@Value@Json@@V23@U?$less@VCZString@Value@Json@@@std@@V?$allocator@U?$pair@$$CBVCZString@Value@Json@@V23@@std@@@5@$0A@@std@@@std@@QBE_NXZ ; std::_Tree<std::_Tmap_traits<Json::Value::CZString,Json::Value,std::less<Json::Value::CZString>,std::allocator<std::pair<Json::Value::CZString const ,Json::Value> >,0> >::empty
PUBLIC	?size@Value@Json@@QBEIXZ			; Json::Value::size
; Function compile flags: /Odtp
;	COMDAT ?size@Value@Json@@QBEIXZ
_TEXT	SEGMENT
tv67 = -24						; size = 4
_this$ = -20						; size = 4
$T31374 = -16						; size = 8
_itLast$21520 = -8					; size = 8
?size@Value@Json@@QBEIXZ PROC				; Json::Value::size, COMDAT
; _this$ = ecx

; 949  : {

	push	ebp
	mov	ebp, esp
	sub	esp, 24					; 00000018H
	mov	DWORD PTR _this$[ebp], ecx

; 950  :    switch ( type_ )

	mov	eax, DWORD PTR _this$[ebp]
	mov	ecx, DWORD PTR [eax+8]
	shl	ecx, 24					; 00000018H
	sar	ecx, 24					; 00000018H
	mov	DWORD PTR tv67[ebp], ecx
	cmp	DWORD PTR tv67[ebp], 7
	ja	SHORT $LN6@size
	mov	edx, DWORD PTR tv67[ebp]
	jmp	DWORD PTR $LN10@size[edx*4]
$LN5@size:

; 951  :    {
; 952  :    case nullValue:
; 953  :    case intValue:
; 954  :    case uintValue:
; 955  :    case realValue:
; 956  :    case booleanValue:
; 957  :    case stringValue:
; 958  :       return 0;

	xor	eax, eax
	jmp	SHORT $LN8@size
$LN4@size:

; 959  : #ifndef JSON_VALUE_USE_INTERNAL_MAP
; 960  :    case arrayValue:  // size of the array is highest index + 1
; 961  :       if ( !value_.map_->empty() )

	mov	eax, DWORD PTR _this$[ebp]
	mov	ecx, DWORD PTR [eax]
	call	?empty@?$_Tree@V?$_Tmap_traits@VCZString@Value@Json@@V23@U?$less@VCZString@Value@Json@@@std@@V?$allocator@U?$pair@$$CBVCZString@Value@Json@@V23@@std@@@5@$0A@@std@@@std@@QBE_NXZ ; std::_Tree<std::_Tmap_traits<Json::Value::CZString,Json::Value,std::less<Json::Value::CZString>,std::allocator<std::pair<Json::Value::CZString const ,Json::Value> >,0> >::empty
	movzx	ecx, al
	test	ecx, ecx
	jne	SHORT $LN3@size

; 962  :       {
; 963  :          ObjectValues::const_iterator itLast = value_.map_->end();

	lea	edx, DWORD PTR $T31374[ebp]
	push	edx
	mov	eax, DWORD PTR _this$[ebp]
	mov	ecx, DWORD PTR [eax]
	call	?end@?$_Tree@V?$_Tmap_traits@VCZString@Value@Json@@V23@U?$less@VCZString@Value@Json@@@std@@V?$allocator@U?$pair@$$CBVCZString@Value@Json@@V23@@std@@@5@$0A@@std@@@std@@QAE?AViterator@12@XZ ; std::_Tree<std::_Tmap_traits<Json::Value::CZString,Json::Value,std::less<Json::Value::CZString>,std::allocator<std::pair<Json::Value::CZString const ,Json::Value> >,0> >::end
	mov	ecx, DWORD PTR [eax]
	mov	edx, DWORD PTR [eax+4]
	mov	DWORD PTR _itLast$21520[ebp], ecx
	mov	DWORD PTR _itLast$21520[ebp+4], edx

; 964  :          --itLast;

	lea	ecx, DWORD PTR _itLast$21520[ebp]
	call	??Fconst_iterator@?$_Tree@V?$_Tmap_traits@VCZString@Value@Json@@V23@U?$less@VCZString@Value@Json@@@std@@V?$allocator@U?$pair@$$CBVCZString@Value@Json@@V23@@std@@@5@$0A@@std@@@std@@QAEAAV012@XZ ; std::_Tree<std::_Tmap_traits<Json::Value::CZString,Json::Value,std::less<Json::Value::CZString>,std::allocator<std::pair<Json::Value::CZString const ,Json::Value> >,0> >::const_iterator::operator--

; 965  :          return (*itLast).first.index()+1;

	lea	ecx, DWORD PTR _itLast$21520[ebp]
	call	??Dconst_iterator@?$_Tree@V?$_Tmap_traits@VCZString@Value@Json@@V23@U?$less@VCZString@Value@Json@@@std@@V?$allocator@U?$pair@$$CBVCZString@Value@Json@@V23@@std@@@5@$0A@@std@@@std@@QBEABU?$pair@$$CBVCZString@Value@Json@@V23@@2@XZ ; std::_Tree<std::_Tmap_traits<Json::Value::CZString,Json::Value,std::less<Json::Value::CZString>,std::allocator<std::pair<Json::Value::CZString const ,Json::Value> >,0> >::const_iterator::operator*
	mov	ecx, eax
	call	?index@CZString@Value@Json@@QBEHXZ	; Json::Value::CZString::index
	add	eax, 1
	jmp	SHORT $LN8@size
$LN3@size:

; 966  :       }
; 967  :       return 0;

	xor	eax, eax
	jmp	SHORT $LN8@size
$LN2@size:

; 968  :    case objectValue:
; 969  :       return Int( value_.map_->size() );

	mov	eax, DWORD PTR _this$[ebp]
	mov	ecx, DWORD PTR [eax]
	call	?size@?$_Tree@V?$_Tmap_traits@VCZString@Value@Json@@V23@U?$less@VCZString@Value@Json@@@std@@V?$allocator@U?$pair@$$CBVCZString@Value@Json@@V23@@std@@@5@$0A@@std@@@std@@QBEIXZ ; std::_Tree<std::_Tmap_traits<Json::Value::CZString,Json::Value,std::less<Json::Value::CZString>,std::allocator<std::pair<Json::Value::CZString const ,Json::Value> >,0> >::size
	jmp	SHORT $LN8@size
$LN6@size:

; 970  : #else
; 971  :    case arrayValue:
; 972  :       return Int( value_.array_->size() );
; 973  :    case objectValue:
; 974  :       return Int( value_.map_->size() );
; 975  : #endif
; 976  :    default:
; 977  :       JSON_ASSERT_UNREACHABLE;
; 978  :    }
; 979  :    return 0; // unreachable;

	xor	eax, eax
$LN8@size:

; 980  : }

	mov	esp, ebp
	pop	ebp
	ret	0
$LN10@size:
	DD	$LN5@size
	DD	$LN5@size
	DD	$LN5@size
	DD	$LN5@size
	DD	$LN5@size
	DD	$LN5@size
	DD	$LN4@size
	DD	$LN2@size
?size@Value@Json@@QBEIXZ ENDP				; Json::Value::size
_TEXT	ENDS
PUBLIC	?isObject@Value@Json@@QBE_NXZ			; Json::Value::isObject
PUBLIC	?isArray@Value@Json@@QBE_NXZ			; Json::Value::isArray
PUBLIC	?isNull@Value@Json@@QBE_NXZ			; Json::Value::isNull
PUBLIC	?empty@Value@Json@@QBE_NXZ			; Json::Value::empty
; Function compile flags: /Odtp
;	COMDAT ?empty@Value@Json@@QBE_NXZ
_TEXT	SEGMENT
_this$ = -4						; size = 4
?empty@Value@Json@@QBE_NXZ PROC				; Json::Value::empty, COMDAT
; _this$ = ecx

; 985  : {

	push	ebp
	mov	ebp, esp
	push	ecx
	mov	DWORD PTR _this$[ebp], ecx

; 986  :    if ( isNull() || isArray() || isObject() )

	mov	ecx, DWORD PTR _this$[ebp]
	call	?isNull@Value@Json@@QBE_NXZ		; Json::Value::isNull
	movzx	eax, al
	test	eax, eax
	jne	SHORT $LN2@empty
	mov	ecx, DWORD PTR _this$[ebp]
	call	?isArray@Value@Json@@QBE_NXZ		; Json::Value::isArray
	movzx	ecx, al
	test	ecx, ecx
	jne	SHORT $LN2@empty
	mov	ecx, DWORD PTR _this$[ebp]
	call	?isObject@Value@Json@@QBE_NXZ		; Json::Value::isObject
	movzx	edx, al
	test	edx, edx
	je	SHORT $LN3@empty
$LN2@empty:

; 987  :       return size() == 0u;

	mov	ecx, DWORD PTR _this$[ebp]
	call	?size@Value@Json@@QBEIXZ		; Json::Value::size
	neg	eax
	sbb	eax, eax
	add	eax, 1
	jmp	SHORT $LN4@empty

; 988  :    else

	jmp	SHORT $LN4@empty
$LN3@empty:

; 989  :       return false;

	xor	al, al
$LN4@empty:

; 990  : }

	mov	esp, ebp
	pop	ebp
	ret	0
?empty@Value@Json@@QBE_NXZ ENDP				; Json::Value::empty
_TEXT	ENDS
PUBLIC	??7Value@Json@@QBE_NXZ				; Json::Value::operator!
; Function compile flags: /Odtp
;	COMDAT ??7Value@Json@@QBE_NXZ
_TEXT	SEGMENT
_this$ = -4						; size = 4
??7Value@Json@@QBE_NXZ PROC				; Json::Value::operator!, COMDAT
; _this$ = ecx

; 995  : {

	push	ebp
	mov	ebp, esp
	push	ecx
	mov	DWORD PTR _this$[ebp], ecx

; 996  :    return isNull();

	mov	ecx, DWORD PTR _this$[ebp]
	call	?isNull@Value@Json@@QBE_NXZ		; Json::Value::isNull

; 997  : }

	mov	esp, ebp
	pop	ebp
	ret	0
??7Value@Json@@QBE_NXZ ENDP				; Json::Value::operator!
_TEXT	ENDS
PUBLIC	?clear@?$_Tree@V?$_Tmap_traits@VCZString@Value@Json@@V23@U?$less@VCZString@Value@Json@@@std@@V?$allocator@U?$pair@$$CBVCZString@Value@Json@@V23@@std@@@5@$0A@@std@@@std@@QAEXXZ ; std::_Tree<std::_Tmap_traits<Json::Value::CZString,Json::Value,std::less<Json::Value::CZString>,std::allocator<std::pair<Json::Value::CZString const ,Json::Value> >,0> >::clear
PUBLIC	?clear@Value@Json@@QAEXXZ			; Json::Value::clear
; Function compile flags: /Odtp
;	COMDAT ?clear@Value@Json@@QAEXXZ
_TEXT	SEGMENT
tv67 = -8						; size = 4
_this$ = -4						; size = 4
?clear@Value@Json@@QAEXXZ PROC				; Json::Value::clear, COMDAT
; _this$ = ecx

; 1002 : {

	push	ebp
	mov	ebp, esp
	sub	esp, 8
	mov	DWORD PTR _this$[ebp], ecx

; 1003 :    JSON_ASSERT( type_ == nullValue  ||  type_ == arrayValue  || type_ == objectValue );
; 1004 : 
; 1005 :    switch ( type_ )

	mov	eax, DWORD PTR _this$[ebp]
	mov	ecx, DWORD PTR [eax+8]
	shl	ecx, 24					; 00000018H
	sar	ecx, 24					; 00000018H
	mov	DWORD PTR tv67[ebp], ecx
	cmp	DWORD PTR tv67[ebp], 6
	jl	SHORT $LN5@clear
	cmp	DWORD PTR tv67[ebp], 7
	jle	SHORT $LN2@clear
	jmp	SHORT $LN5@clear
$LN2@clear:

; 1006 :    {
; 1007 : #ifndef JSON_VALUE_USE_INTERNAL_MAP
; 1008 :    case arrayValue:
; 1009 :    case objectValue:
; 1010 :       value_.map_->clear();

	mov	edx, DWORD PTR _this$[ebp]
	mov	ecx, DWORD PTR [edx]
	call	?clear@?$_Tree@V?$_Tmap_traits@VCZString@Value@Json@@V23@U?$less@VCZString@Value@Json@@@std@@V?$allocator@U?$pair@$$CBVCZString@Value@Json@@V23@@std@@@5@$0A@@std@@@std@@QAEXXZ ; std::_Tree<std::_Tmap_traits<Json::Value::CZString,Json::Value,std::less<Json::Value::CZString>,std::allocator<std::pair<Json::Value::CZString const ,Json::Value> >,0> >::clear
$LN5@clear:

; 1011 :       break;
; 1012 : #else
; 1013 :    case arrayValue:
; 1014 :       value_.array_->clear();
; 1015 :       break;
; 1016 :    case objectValue:
; 1017 :       value_.map_->clear();
; 1018 :       break;
; 1019 : #endif
; 1020 :    default:
; 1021 :       break;
; 1022 :    }
; 1023 : }

	mov	esp, ebp
	pop	ebp
	ret	0
?clear@Value@Json@@QAEXXZ ENDP				; Json::Value::clear
_TEXT	ENDS
PUBLIC	?erase@?$_Tree@V?$_Tmap_traits@VCZString@Value@Json@@V23@U?$less@VCZString@Value@Json@@@std@@V?$allocator@U?$pair@$$CBVCZString@Value@Json@@V23@@std@@@5@$0A@@std@@@std@@QAEIABVCZString@Value@Json@@@Z ; std::_Tree<std::_Tmap_traits<Json::Value::CZString,Json::Value,std::less<Json::Value::CZString>,std::allocator<std::pair<Json::Value::CZString const ,Json::Value> >,0> >::erase
PUBLIC	??AValue@Json@@QAEAAV01@I@Z			; Json::Value::operator[]
PUBLIC	?resize@Value@Json@@QAEXI@Z			; Json::Value::resize
;	COMDAT xdata$x
xdata$x	SEGMENT
__unwindtable$?resize@Value@Json@@QAEXI@Z DD 0ffffffffH
	DD	FLAT:__unwindfunclet$?resize@Value@Json@@QAEXI@Z$0
	DD	0ffffffffH
	DD	FLAT:__unwindfunclet$?resize@Value@Json@@QAEXI@Z$1
__ehfuncinfo$?resize@Value@Json@@QAEXI@Z DD 019930522H
	DD	02H
	DD	FLAT:__unwindtable$?resize@Value@Json@@QAEXI@Z
	DD	2 DUP(00H)
	DD	2 DUP(00H)
	DD	00H
	DD	01H
; Function compile flags: /Odtp
xdata$x	ENDS
;	COMDAT ?resize@Value@Json@@QAEXI@Z
_TEXT	SEGMENT
tv92 = -56						; size = 4
tv94 = -52						; size = 4
_this$ = -48						; size = 4
$T31385 = -44						; size = 8
$T31384 = -36						; size = 16
_index$21556 = -20					; size = 4
_oldSize$ = -16						; size = 4
__$EHRec$ = -12						; size = 12
_newSize$ = 8						; size = 4
?resize@Value@Json@@QAEXI@Z PROC			; Json::Value::resize, COMDAT
; _this$ = ecx

; 1027 : {

	push	ebp
	mov	ebp, esp
	push	-1
	push	__ehhandler$?resize@Value@Json@@QAEXI@Z
	mov	eax, DWORD PTR fs:0
	push	eax
	sub	esp, 44					; 0000002cH
	mov	eax, DWORD PTR ___security_cookie
	xor	eax, ebp
	push	eax
	lea	eax, DWORD PTR __$EHRec$[ebp]
	mov	DWORD PTR fs:0, eax
	mov	DWORD PTR _this$[ebp], ecx

; 1028 :    JSON_ASSERT( type_ == nullValue  ||  type_ == arrayValue );
; 1029 :    if ( type_ == nullValue )

	mov	eax, DWORD PTR _this$[ebp]
	mov	ecx, DWORD PTR [eax+8]
	shl	ecx, 24					; 00000018H
	sar	ecx, 24					; 00000018H
	jne	SHORT $LN8@resize

; 1030 :       *this = Value( arrayValue );

	push	6
	lea	ecx, DWORD PTR $T31384[ebp]
	call	??0Value@Json@@QAE@W4ValueType@1@@Z	; Json::Value::Value
	mov	DWORD PTR tv94[ebp], eax
	mov	edx, DWORD PTR tv94[ebp]
	mov	DWORD PTR tv92[ebp], edx
	mov	DWORD PTR __$EHRec$[ebp+8], 0
	mov	eax, DWORD PTR tv92[ebp]
	push	eax
	mov	ecx, DWORD PTR _this$[ebp]
	call	??4Value@Json@@QAEAAV01@ABV01@@Z	; Json::Value::operator=
	mov	DWORD PTR __$EHRec$[ebp+8], -1
	lea	ecx, DWORD PTR $T31384[ebp]
	call	??1Value@Json@@QAE@XZ			; Json::Value::~Value
$LN8@resize:

; 1031 : #ifndef JSON_VALUE_USE_INTERNAL_MAP
; 1032 :    UInt oldSize = size();

	mov	ecx, DWORD PTR _this$[ebp]
	call	?size@Value@Json@@QBEIXZ		; Json::Value::size
	mov	DWORD PTR _oldSize$[ebp], eax

; 1033 :    if ( newSize == 0 )

	cmp	DWORD PTR _newSize$[ebp], 0
	jne	SHORT $LN7@resize

; 1034 :       clear();

	mov	ecx, DWORD PTR _this$[ebp]
	call	?clear@Value@Json@@QAEXXZ		; Json::Value::clear
	jmp	SHORT $LN9@resize
$LN7@resize:

; 1035 :    else if ( newSize > oldSize )

	mov	ecx, DWORD PTR _newSize$[ebp]
	cmp	ecx, DWORD PTR _oldSize$[ebp]
	jbe	SHORT $LN5@resize

; 1036 :       (*this)[ newSize - 1 ];

	mov	edx, DWORD PTR _newSize$[ebp]
	sub	edx, 1
	push	edx
	mov	ecx, DWORD PTR _this$[ebp]
	call	??AValue@Json@@QAEAAV01@I@Z		; Json::Value::operator[]

; 1037 :    else

	jmp	SHORT $LN9@resize
$LN5@resize:

; 1038 :    {
; 1039 :       for ( UInt index = newSize; index < oldSize; ++index )

	mov	eax, DWORD PTR _newSize$[ebp]
	mov	DWORD PTR _index$21556[ebp], eax
	jmp	SHORT $LN3@resize
$LN2@resize:
	mov	ecx, DWORD PTR _index$21556[ebp]
	add	ecx, 1
	mov	DWORD PTR _index$21556[ebp], ecx
$LN3@resize:
	mov	edx, DWORD PTR _index$21556[ebp]
	cmp	edx, DWORD PTR _oldSize$[ebp]
	jae	SHORT $LN9@resize

; 1040 :          value_.map_->erase( index );

	mov	eax, DWORD PTR _index$21556[ebp]
	push	eax
	lea	ecx, DWORD PTR $T31385[ebp]
	call	??0CZString@Value@Json@@QAE@H@Z		; Json::Value::CZString::CZString
	mov	DWORD PTR __$EHRec$[ebp+8], 1
	lea	ecx, DWORD PTR $T31385[ebp]
	push	ecx
	mov	edx, DWORD PTR _this$[ebp]
	mov	ecx, DWORD PTR [edx]
	call	?erase@?$_Tree@V?$_Tmap_traits@VCZString@Value@Json@@V23@U?$less@VCZString@Value@Json@@@std@@V?$allocator@U?$pair@$$CBVCZString@Value@Json@@V23@@std@@@5@$0A@@std@@@std@@QAEIABVCZString@Value@Json@@@Z ; std::_Tree<std::_Tmap_traits<Json::Value::CZString,Json::Value,std::less<Json::Value::CZString>,std::allocator<std::pair<Json::Value::CZString const ,Json::Value> >,0> >::erase
	mov	DWORD PTR __$EHRec$[ebp+8], -1
	lea	ecx, DWORD PTR $T31385[ebp]
	call	??1CZString@Value@Json@@QAE@XZ		; Json::Value::CZString::~CZString
	jmp	SHORT $LN2@resize
$LN9@resize:

; 1041 :       assert( size() == newSize );
; 1042 :    }
; 1043 : #else
; 1044 :    value_.array_->resize( newSize );
; 1045 : #endif
; 1046 : }

	mov	ecx, DWORD PTR __$EHRec$[ebp]
	mov	DWORD PTR fs:0, ecx
	pop	ecx
	mov	esp, ebp
	pop	ebp
	ret	4
_TEXT	ENDS
;	COMDAT text$x
text$x	SEGMENT
__unwindfunclet$?resize@Value@Json@@QAEXI@Z$0:
	lea	ecx, DWORD PTR $T31384[ebp]
	jmp	??1Value@Json@@QAE@XZ			; Json::Value::~Value
__unwindfunclet$?resize@Value@Json@@QAEXI@Z$1:
	lea	ecx, DWORD PTR $T31385[ebp]
	jmp	??1CZString@Value@Json@@QAE@XZ		; Json::Value::CZString::~CZString
__ehhandler$?resize@Value@Json@@QAEXI@Z:
	mov	edx, DWORD PTR [esp+8]
	lea	eax, DWORD PTR [edx+12]
	mov	ecx, DWORD PTR [edx-48]
	xor	ecx, eax
	call	@__security_check_cookie@4
	mov	eax, OFFSET __ehfuncinfo$?resize@Value@Json@@QAEXI@Z
	jmp	___CxxFrameHandler3
text$x	ENDS
?resize@Value@Json@@QAEXI@Z ENDP			; Json::Value::resize
PUBLIC	??1?$pair@$$CBVCZString@Value@Json@@V23@@std@@QAE@XZ ; std::pair<Json::Value::CZString const ,Json::Value>::~pair<Json::Value::CZString const ,Json::Value>
PUBLIC	?insert@?$_Tree@V?$_Tmap_traits@VCZString@Value@Json@@V23@U?$less@VCZString@Value@Json@@@std@@V?$allocator@U?$pair@$$CBVCZString@Value@Json@@V23@@std@@@5@$0A@@std@@@std@@QAE?AViterator@12@V312@ABU?$pair@$$CBVCZString@Value@Json@@V23@@2@@Z ; std::_Tree<std::_Tmap_traits<Json::Value::CZString,Json::Value,std::less<Json::Value::CZString>,std::allocator<std::pair<Json::Value::CZString const ,Json::Value> >,0> >::insert
PUBLIC	??0?$pair@$$CBVCZString@Value@Json@@V23@@std@@QAE@ABVCZString@Value@Json@@ABV34@@Z ; std::pair<Json::Value::CZString const ,Json::Value>::pair<Json::Value::CZString const ,Json::Value>
PUBLIC	?lower_bound@?$_Tree@V?$_Tmap_traits@VCZString@Value@Json@@V23@U?$less@VCZString@Value@Json@@@std@@V?$allocator@U?$pair@$$CBVCZString@Value@Json@@V23@@std@@@5@$0A@@std@@@std@@QAE?AViterator@12@ABVCZString@Value@Json@@@Z ; std::_Tree<std::_Tmap_traits<Json::Value::CZString,Json::Value,std::less<Json::Value::CZString>,std::allocator<std::pair<Json::Value::CZString const ,Json::Value> >,0> >::lower_bound
;	COMDAT xdata$x
xdata$x	SEGMENT
__unwindtable$??AValue@Json@@QAEAAV01@I@Z DD 0ffffffffH
	DD	FLAT:__unwindfunclet$??AValue@Json@@QAEAAV01@I@Z$0
	DD	0ffffffffH
	DD	FLAT:__unwindfunclet$??AValue@Json@@QAEAAV01@I@Z$1
	DD	01H
	DD	FLAT:__unwindfunclet$??AValue@Json@@QAEAAV01@I@Z$2
__ehfuncinfo$??AValue@Json@@QAEAAV01@I@Z DD 019930522H
	DD	03H
	DD	FLAT:__unwindtable$??AValue@Json@@QAEAAV01@I@Z
	DD	2 DUP(00H)
	DD	2 DUP(00H)
	DD	00H
	DD	01H
; Function compile flags: /Odtp
xdata$x	ENDS
;	COMDAT ??AValue@Json@@QAEAAV01@I@Z
_TEXT	SEGMENT
tv147 = -104						; size = 4
tv153 = -100						; size = 4
_this$ = -96						; size = 4
$T31400 = -92						; size = 4
$T31399 = -88						; size = 8
$T31398 = -80						; size = 4
$T31397 = -76						; size = 8
$T31396 = -68						; size = 16
_key$ = -52						; size = 8
_defaultValue$ = -44					; size = 24
_it$ = -20						; size = 8
__$EHRec$ = -12						; size = 12
_index$ = 8						; size = 4
??AValue@Json@@QAEAAV01@I@Z PROC			; Json::Value::operator[], COMDAT
; _this$ = ecx

; 1051 : {

	push	ebp
	mov	ebp, esp
	push	-1
	push	__ehhandler$??AValue@Json@@QAEAAV01@I@Z
	mov	eax, DWORD PTR fs:0
	push	eax
	sub	esp, 92					; 0000005cH
	mov	eax, DWORD PTR ___security_cookie
	xor	eax, ebp
	push	eax
	lea	eax, DWORD PTR __$EHRec$[ebp]
	mov	DWORD PTR fs:0, eax
	mov	DWORD PTR _this$[ebp], ecx

; 1052 :    JSON_ASSERT( type_ == nullValue  ||  type_ == arrayValue );
; 1053 :    if ( type_ == nullValue )

	mov	eax, DWORD PTR _this$[ebp]
	mov	ecx, DWORD PTR [eax+8]
	shl	ecx, 24					; 00000018H
	sar	ecx, 24					; 00000018H
	jne	SHORT $LN2@operator@5

; 1054 :       *this = Value( arrayValue );

	push	6
	lea	ecx, DWORD PTR $T31396[ebp]
	call	??0Value@Json@@QAE@W4ValueType@1@@Z	; Json::Value::Value
	mov	DWORD PTR tv153[ebp], eax
	mov	edx, DWORD PTR tv153[ebp]
	mov	DWORD PTR tv147[ebp], edx
	mov	DWORD PTR __$EHRec$[ebp+8], 0
	mov	eax, DWORD PTR tv147[ebp]
	push	eax
	mov	ecx, DWORD PTR _this$[ebp]
	call	??4Value@Json@@QAEAAV01@ABV01@@Z	; Json::Value::operator=
	mov	DWORD PTR __$EHRec$[ebp+8], -1
	lea	ecx, DWORD PTR $T31396[ebp]
	call	??1Value@Json@@QAE@XZ			; Json::Value::~Value
$LN2@operator@5:

; 1055 : #ifndef JSON_VALUE_USE_INTERNAL_MAP
; 1056 :    CZString key( index );

	mov	ecx, DWORD PTR _index$[ebp]
	push	ecx
	lea	ecx, DWORD PTR _key$[ebp]
	call	??0CZString@Value@Json@@QAE@H@Z		; Json::Value::CZString::CZString
	mov	DWORD PTR __$EHRec$[ebp+8], 1

; 1057 :    ObjectValues::iterator it = value_.map_->lower_bound( key );

	lea	edx, DWORD PTR _key$[ebp]
	push	edx
	lea	eax, DWORD PTR _it$[ebp]
	push	eax
	mov	ecx, DWORD PTR _this$[ebp]
	mov	ecx, DWORD PTR [ecx]
	call	?lower_bound@?$_Tree@V?$_Tmap_traits@VCZString@Value@Json@@V23@U?$less@VCZString@Value@Json@@@std@@V?$allocator@U?$pair@$$CBVCZString@Value@Json@@V23@@std@@@5@$0A@@std@@@std@@QAE?AViterator@12@ABVCZString@Value@Json@@@Z ; std::_Tree<std::_Tmap_traits<Json::Value::CZString,Json::Value,std::less<Json::Value::CZString>,std::allocator<std::pair<Json::Value::CZString const ,Json::Value> >,0> >::lower_bound

; 1058 :    if ( it != value_.map_->end()  &&  (*it).first == key )

	lea	edx, DWORD PTR $T31397[ebp]
	push	edx
	mov	eax, DWORD PTR _this$[ebp]
	mov	ecx, DWORD PTR [eax]
	call	?end@?$_Tree@V?$_Tmap_traits@VCZString@Value@Json@@V23@U?$less@VCZString@Value@Json@@@std@@V?$allocator@U?$pair@$$CBVCZString@Value@Json@@V23@@std@@@5@$0A@@std@@@std@@QAE?AViterator@12@XZ ; std::_Tree<std::_Tmap_traits<Json::Value::CZString,Json::Value,std::less<Json::Value::CZString>,std::allocator<std::pair<Json::Value::CZString const ,Json::Value> >,0> >::end
	push	eax
	lea	ecx, DWORD PTR _it$[ebp]
	call	??9const_iterator@?$_Tree@V?$_Tmap_traits@VCZString@Value@Json@@V23@U?$less@VCZString@Value@Json@@@std@@V?$allocator@U?$pair@$$CBVCZString@Value@Json@@V23@@std@@@5@$0A@@std@@@std@@QBE_NABV012@@Z ; std::_Tree<std::_Tmap_traits<Json::Value::CZString,Json::Value,std::less<Json::Value::CZString>,std::allocator<std::pair<Json::Value::CZString const ,Json::Value> >,0> >::const_iterator::operator!=
	movzx	ecx, al
	test	ecx, ecx
	je	SHORT $LN1@operator@5
	lea	edx, DWORD PTR _key$[ebp]
	push	edx
	lea	ecx, DWORD PTR _it$[ebp]
	call	??Diterator@?$_Tree@V?$_Tmap_traits@VCZString@Value@Json@@V23@U?$less@VCZString@Value@Json@@@std@@V?$allocator@U?$pair@$$CBVCZString@Value@Json@@V23@@std@@@5@$0A@@std@@@std@@QBEAAU?$pair@$$CBVCZString@Value@Json@@V23@@2@XZ ; std::_Tree<std::_Tmap_traits<Json::Value::CZString,Json::Value,std::less<Json::Value::CZString>,std::allocator<std::pair<Json::Value::CZString const ,Json::Value> >,0> >::iterator::operator*
	mov	ecx, eax
	call	??8CZString@Value@Json@@QBE_NABV012@@Z	; Json::Value::CZString::operator==
	movzx	eax, al
	test	eax, eax
	je	SHORT $LN1@operator@5

; 1059 :       return (*it).second;

	lea	ecx, DWORD PTR _it$[ebp]
	call	??Diterator@?$_Tree@V?$_Tmap_traits@VCZString@Value@Json@@V23@U?$less@VCZString@Value@Json@@@std@@V?$allocator@U?$pair@$$CBVCZString@Value@Json@@V23@@std@@@5@$0A@@std@@@std@@QBEAAU?$pair@$$CBVCZString@Value@Json@@V23@@2@XZ ; std::_Tree<std::_Tmap_traits<Json::Value::CZString,Json::Value,std::less<Json::Value::CZString>,std::allocator<std::pair<Json::Value::CZString const ,Json::Value> >,0> >::iterator::operator*
	add	eax, 8
	mov	DWORD PTR $T31398[ebp], eax
	mov	DWORD PTR __$EHRec$[ebp+8], -1
	lea	ecx, DWORD PTR _key$[ebp]
	call	??1CZString@Value@Json@@QAE@XZ		; Json::Value::CZString::~CZString
	mov	eax, DWORD PTR $T31398[ebp]
	jmp	SHORT $LN3@operator@5
$LN1@operator@5:

; 1060 : 
; 1061 :    ObjectValues::value_type defaultValue( key, null );

	push	OFFSET ?null@Value@Json@@2V12@B		; Json::Value::null
	lea	ecx, DWORD PTR _key$[ebp]
	push	ecx
	lea	ecx, DWORD PTR _defaultValue$[ebp]
	call	??0?$pair@$$CBVCZString@Value@Json@@V23@@std@@QAE@ABVCZString@Value@Json@@ABV34@@Z ; std::pair<Json::Value::CZString const ,Json::Value>::pair<Json::Value::CZString const ,Json::Value>
	mov	BYTE PTR __$EHRec$[ebp+8], 2

; 1062 :    it = value_.map_->insert( it, defaultValue );

	lea	edx, DWORD PTR _defaultValue$[ebp]
	push	edx
	mov	eax, DWORD PTR _it$[ebp+4]
	push	eax
	mov	ecx, DWORD PTR _it$[ebp]
	push	ecx
	lea	edx, DWORD PTR $T31399[ebp]
	push	edx
	mov	eax, DWORD PTR _this$[ebp]
	mov	ecx, DWORD PTR [eax]
	call	?insert@?$_Tree@V?$_Tmap_traits@VCZString@Value@Json@@V23@U?$less@VCZString@Value@Json@@@std@@V?$allocator@U?$pair@$$CBVCZString@Value@Json@@V23@@std@@@5@$0A@@std@@@std@@QAE?AViterator@12@V312@ABU?$pair@$$CBVCZString@Value@Json@@V23@@2@@Z ; std::_Tree<std::_Tmap_traits<Json::Value::CZString,Json::Value,std::less<Json::Value::CZString>,std::allocator<std::pair<Json::Value::CZString const ,Json::Value> >,0> >::insert
	mov	ecx, DWORD PTR [eax]
	mov	edx, DWORD PTR [eax+4]
	mov	DWORD PTR _it$[ebp], ecx
	mov	DWORD PTR _it$[ebp+4], edx

; 1063 :    return (*it).second;

	lea	ecx, DWORD PTR _it$[ebp]
	call	??Diterator@?$_Tree@V?$_Tmap_traits@VCZString@Value@Json@@V23@U?$less@VCZString@Value@Json@@@std@@V?$allocator@U?$pair@$$CBVCZString@Value@Json@@V23@@std@@@5@$0A@@std@@@std@@QBEAAU?$pair@$$CBVCZString@Value@Json@@V23@@2@XZ ; std::_Tree<std::_Tmap_traits<Json::Value::CZString,Json::Value,std::less<Json::Value::CZString>,std::allocator<std::pair<Json::Value::CZString const ,Json::Value> >,0> >::iterator::operator*
	add	eax, 8
	mov	DWORD PTR $T31400[ebp], eax
	mov	BYTE PTR __$EHRec$[ebp+8], 1
	lea	ecx, DWORD PTR _defaultValue$[ebp]
	call	??1?$pair@$$CBVCZString@Value@Json@@V23@@std@@QAE@XZ
	mov	DWORD PTR __$EHRec$[ebp+8], -1
	lea	ecx, DWORD PTR _key$[ebp]
	call	??1CZString@Value@Json@@QAE@XZ		; Json::Value::CZString::~CZString
	mov	eax, DWORD PTR $T31400[ebp]
$LN3@operator@5:

; 1064 : #else
; 1065 :    return value_.array_->resolveReference( index );
; 1066 : #endif
; 1067 : }

	mov	ecx, DWORD PTR __$EHRec$[ebp]
	mov	DWORD PTR fs:0, ecx
	pop	ecx
	mov	esp, ebp
	pop	ebp
	ret	4
_TEXT	ENDS
;	COMDAT text$x
text$x	SEGMENT
__unwindfunclet$??AValue@Json@@QAEAAV01@I@Z$0:
	lea	ecx, DWORD PTR $T31396[ebp]
	jmp	??1Value@Json@@QAE@XZ			; Json::Value::~Value
__unwindfunclet$??AValue@Json@@QAEAAV01@I@Z$1:
	lea	ecx, DWORD PTR _key$[ebp]
	jmp	??1CZString@Value@Json@@QAE@XZ		; Json::Value::CZString::~CZString
__unwindfunclet$??AValue@Json@@QAEAAV01@I@Z$2:
	lea	ecx, DWORD PTR _defaultValue$[ebp]
	jmp	??1?$pair@$$CBVCZString@Value@Json@@V23@@std@@QAE@XZ
__ehhandler$??AValue@Json@@QAEAAV01@I@Z:
	mov	edx, DWORD PTR [esp+8]
	lea	eax, DWORD PTR [edx+12]
	mov	ecx, DWORD PTR [edx-96]
	xor	ecx, eax
	call	@__security_check_cookie@4
	mov	eax, OFFSET __ehfuncinfo$??AValue@Json@@QAEAAV01@I@Z
	jmp	___CxxFrameHandler3
text$x	ENDS
??AValue@Json@@QAEAAV01@I@Z ENDP			; Json::Value::operator[]
;	COMDAT xdata$x
xdata$x	SEGMENT
__unwindtable$??1?$pair@$$CBVCZString@Value@Json@@V23@@std@@QAE@XZ DD 0ffffffffH
	DD	FLAT:__unwindfunclet$??1?$pair@$$CBVCZString@Value@Json@@V23@@std@@QAE@XZ$0
__ehfuncinfo$??1?$pair@$$CBVCZString@Value@Json@@V23@@std@@QAE@XZ DD 019930522H
	DD	01H
	DD	FLAT:__unwindtable$??1?$pair@$$CBVCZString@Value@Json@@V23@@std@@QAE@XZ
	DD	2 DUP(00H)
	DD	2 DUP(00H)
	DD	00H
	DD	01H
; Function compile flags: /Odtp
xdata$x	ENDS
;	COMDAT ??1?$pair@$$CBVCZString@Value@Json@@V23@@std@@QAE@XZ
_TEXT	SEGMENT
_this$ = -16						; size = 4
__$EHRec$ = -12						; size = 12
??1?$pair@$$CBVCZString@Value@Json@@V23@@std@@QAE@XZ PROC ; std::pair<Json::Value::CZString const ,Json::Value>::~pair<Json::Value::CZString const ,Json::Value>, COMDAT
; _this$ = ecx
	push	ebp
	mov	ebp, esp
	push	-1
	push	__ehhandler$??1?$pair@$$CBVCZString@Value@Json@@V23@@std@@QAE@XZ
	mov	eax, DWORD PTR fs:0
	push	eax
	push	ecx
	mov	eax, DWORD PTR ___security_cookie
	xor	eax, ebp
	push	eax
	lea	eax, DWORD PTR __$EHRec$[ebp]
	mov	DWORD PTR fs:0, eax
	mov	DWORD PTR _this$[ebp], ecx
	mov	DWORD PTR __$EHRec$[ebp+8], 0
	mov	ecx, DWORD PTR _this$[ebp]
	add	ecx, 8
	call	??1Value@Json@@QAE@XZ			; Json::Value::~Value
	mov	DWORD PTR __$EHRec$[ebp+8], -1
	mov	ecx, DWORD PTR _this$[ebp]
	call	??1CZString@Value@Json@@QAE@XZ		; Json::Value::CZString::~CZString
	mov	ecx, DWORD PTR __$EHRec$[ebp]
	mov	DWORD PTR fs:0, ecx
	pop	ecx
	mov	esp, ebp
	pop	ebp
	ret	0
_TEXT	ENDS
;	COMDAT text$x
text$x	SEGMENT
__unwindfunclet$??1?$pair@$$CBVCZString@Value@Json@@V23@@std@@QAE@XZ$0:
	mov	ecx, DWORD PTR _this$[ebp]
	jmp	??1CZString@Value@Json@@QAE@XZ		; Json::Value::CZString::~CZString
__ehhandler$??1?$pair@$$CBVCZString@Value@Json@@V23@@std@@QAE@XZ:
	mov	edx, DWORD PTR [esp+8]
	lea	eax, DWORD PTR [edx+12]
	mov	ecx, DWORD PTR [edx-8]
	xor	ecx, eax
	call	@__security_check_cookie@4
	mov	eax, OFFSET __ehfuncinfo$??1?$pair@$$CBVCZString@Value@Json@@V23@@std@@QAE@XZ
	jmp	___CxxFrameHandler3
text$x	ENDS
??1?$pair@$$CBVCZString@Value@Json@@V23@@std@@QAE@XZ ENDP ; std::pair<Json::Value::CZString const ,Json::Value>::~pair<Json::Value::CZString const ,Json::Value>
PUBLIC	?find@?$_Tree@V?$_Tmap_traits@VCZString@Value@Json@@V23@U?$less@VCZString@Value@Json@@@std@@V?$allocator@U?$pair@$$CBVCZString@Value@Json@@V23@@std@@@5@$0A@@std@@@std@@QAE?AViterator@12@ABVCZString@Value@Json@@@Z ; std::_Tree<std::_Tmap_traits<Json::Value::CZString,Json::Value,std::less<Json::Value::CZString>,std::allocator<std::pair<Json::Value::CZString const ,Json::Value> >,0> >::find
PUBLIC	??AValue@Json@@QBEABV01@I@Z			; Json::Value::operator[]
;	COMDAT xdata$x
xdata$x	SEGMENT
__unwindtable$??AValue@Json@@QBEABV01@I@Z DD 0ffffffffH
	DD	FLAT:__unwindfunclet$??AValue@Json@@QBEABV01@I@Z$0
__ehfuncinfo$??AValue@Json@@QBEABV01@I@Z DD 019930522H
	DD	01H
	DD	FLAT:__unwindtable$??AValue@Json@@QBEABV01@I@Z
	DD	2 DUP(00H)
	DD	2 DUP(00H)
	DD	00H
	DD	01H
; Function compile flags: /Odtp
xdata$x	ENDS
;	COMDAT ??AValue@Json@@QBEABV01@I@Z
_TEXT	SEGMENT
_this$ = -56						; size = 4
$T31425 = -52						; size = 4
$T31424 = -48						; size = 4
$T31423 = -44						; size = 8
$T31422 = -36						; size = 8
_key$ = -28						; size = 8
_it$ = -20						; size = 8
__$EHRec$ = -12						; size = 12
_index$ = 8						; size = 4
??AValue@Json@@QBEABV01@I@Z PROC			; Json::Value::operator[], COMDAT
; _this$ = ecx

; 1072 : {

	push	ebp
	mov	ebp, esp
	push	-1
	push	__ehhandler$??AValue@Json@@QBEABV01@I@Z
	mov	eax, DWORD PTR fs:0
	push	eax
	sub	esp, 44					; 0000002cH
	mov	eax, DWORD PTR ___security_cookie
	xor	eax, ebp
	push	eax
	lea	eax, DWORD PTR __$EHRec$[ebp]
	mov	DWORD PTR fs:0, eax
	mov	DWORD PTR _this$[ebp], ecx

; 1073 :    JSON_ASSERT( type_ == nullValue  ||  type_ == arrayValue );
; 1074 :    if ( type_ == nullValue )

	mov	eax, DWORD PTR _this$[ebp]
	mov	ecx, DWORD PTR [eax+8]
	shl	ecx, 24					; 00000018H
	sar	ecx, 24					; 00000018H
	jne	SHORT $LN2@operator@6

; 1075 :       return null;

	mov	eax, OFFSET ?null@Value@Json@@2V12@B	; Json::Value::null
	jmp	$LN3@operator@6
$LN2@operator@6:

; 1076 : #ifndef JSON_VALUE_USE_INTERNAL_MAP
; 1077 :    CZString key( index );

	mov	edx, DWORD PTR _index$[ebp]
	push	edx
	lea	ecx, DWORD PTR _key$[ebp]
	call	??0CZString@Value@Json@@QAE@H@Z		; Json::Value::CZString::CZString
	mov	DWORD PTR __$EHRec$[ebp+8], 0

; 1078 :    ObjectValues::const_iterator it = value_.map_->find( key );

	lea	eax, DWORD PTR _key$[ebp]
	push	eax
	lea	ecx, DWORD PTR $T31422[ebp]
	push	ecx
	mov	edx, DWORD PTR _this$[ebp]
	mov	ecx, DWORD PTR [edx]
	call	?find@?$_Tree@V?$_Tmap_traits@VCZString@Value@Json@@V23@U?$less@VCZString@Value@Json@@@std@@V?$allocator@U?$pair@$$CBVCZString@Value@Json@@V23@@std@@@5@$0A@@std@@@std@@QAE?AViterator@12@ABVCZString@Value@Json@@@Z ; std::_Tree<std::_Tmap_traits<Json::Value::CZString,Json::Value,std::less<Json::Value::CZString>,std::allocator<std::pair<Json::Value::CZString const ,Json::Value> >,0> >::find
	mov	ecx, DWORD PTR [eax]
	mov	edx, DWORD PTR [eax+4]
	mov	DWORD PTR _it$[ebp], ecx
	mov	DWORD PTR _it$[ebp+4], edx

; 1079 :    if ( it == value_.map_->end() )

	lea	eax, DWORD PTR $T31423[ebp]
	push	eax
	mov	ecx, DWORD PTR _this$[ebp]
	mov	ecx, DWORD PTR [ecx]
	call	?end@?$_Tree@V?$_Tmap_traits@VCZString@Value@Json@@V23@U?$less@VCZString@Value@Json@@@std@@V?$allocator@U?$pair@$$CBVCZString@Value@Json@@V23@@std@@@5@$0A@@std@@@std@@QAE?AViterator@12@XZ ; std::_Tree<std::_Tmap_traits<Json::Value::CZString,Json::Value,std::less<Json::Value::CZString>,std::allocator<std::pair<Json::Value::CZString const ,Json::Value> >,0> >::end
	push	eax
	lea	ecx, DWORD PTR _it$[ebp]
	call	??8const_iterator@?$_Tree@V?$_Tmap_traits@VCZString@Value@Json@@V23@U?$less@VCZString@Value@Json@@@std@@V?$allocator@U?$pair@$$CBVCZString@Value@Json@@V23@@std@@@5@$0A@@std@@@std@@QBE_NABV012@@Z ; std::_Tree<std::_Tmap_traits<Json::Value::CZString,Json::Value,std::less<Json::Value::CZString>,std::allocator<std::pair<Json::Value::CZString const ,Json::Value> >,0> >::const_iterator::operator==
	movzx	edx, al
	test	edx, edx
	je	SHORT $LN1@operator@6

; 1080 :       return null;

	mov	DWORD PTR $T31424[ebp], OFFSET ?null@Value@Json@@2V12@B ; Json::Value::null
	mov	DWORD PTR __$EHRec$[ebp+8], -1
	lea	ecx, DWORD PTR _key$[ebp]
	call	??1CZString@Value@Json@@QAE@XZ		; Json::Value::CZString::~CZString
	mov	eax, DWORD PTR $T31424[ebp]
	jmp	SHORT $LN3@operator@6
$LN1@operator@6:

; 1081 :    return (*it).second;

	lea	ecx, DWORD PTR _it$[ebp]
	call	??Dconst_iterator@?$_Tree@V?$_Tmap_traits@VCZString@Value@Json@@V23@U?$less@VCZString@Value@Json@@@std@@V?$allocator@U?$pair@$$CBVCZString@Value@Json@@V23@@std@@@5@$0A@@std@@@std@@QBEABU?$pair@$$CBVCZString@Value@Json@@V23@@2@XZ ; std::_Tree<std::_Tmap_traits<Json::Value::CZString,Json::Value,std::less<Json::Value::CZString>,std::allocator<std::pair<Json::Value::CZString const ,Json::Value> >,0> >::const_iterator::operator*
	add	eax, 8
	mov	DWORD PTR $T31425[ebp], eax
	mov	DWORD PTR __$EHRec$[ebp+8], -1
	lea	ecx, DWORD PTR _key$[ebp]
	call	??1CZString@Value@Json@@QAE@XZ		; Json::Value::CZString::~CZString
	mov	eax, DWORD PTR $T31425[ebp]
$LN3@operator@6:

; 1082 : #else
; 1083 :    Value *value = value_.array_->find( index );
; 1084 :    return value ? *value : null;
; 1085 : #endif
; 1086 : }

	mov	ecx, DWORD PTR __$EHRec$[ebp]
	mov	DWORD PTR fs:0, ecx
	pop	ecx
	mov	esp, ebp
	pop	ebp
	ret	4
_TEXT	ENDS
;	COMDAT text$x
text$x	SEGMENT
__unwindfunclet$??AValue@Json@@QBEABV01@I@Z$0:
	lea	ecx, DWORD PTR _key$[ebp]
	jmp	??1CZString@Value@Json@@QAE@XZ		; Json::Value::CZString::~CZString
__ehhandler$??AValue@Json@@QBEABV01@I@Z:
	mov	edx, DWORD PTR [esp+8]
	lea	eax, DWORD PTR [edx+12]
	mov	ecx, DWORD PTR [edx-48]
	xor	ecx, eax
	call	@__security_check_cookie@4
	mov	eax, OFFSET __ehfuncinfo$??AValue@Json@@QBEABV01@I@Z
	jmp	___CxxFrameHandler3
text$x	ENDS
??AValue@Json@@QBEABV01@I@Z ENDP			; Json::Value::operator[]
PUBLIC	?resolveReference@Value@Json@@AAEAAV12@PBD_N@Z	; Json::Value::resolveReference
PUBLIC	??AValue@Json@@QAEAAV01@PBD@Z			; Json::Value::operator[]
; Function compile flags: /Odtp
;	COMDAT ??AValue@Json@@QAEAAV01@PBD@Z
_TEXT	SEGMENT
_this$ = -4						; size = 4
_key$ = 8						; size = 4
??AValue@Json@@QAEAAV01@PBD@Z PROC			; Json::Value::operator[], COMDAT
; _this$ = ecx

; 1091 : {

	push	ebp
	mov	ebp, esp
	push	ecx
	mov	DWORD PTR _this$[ebp], ecx

; 1092 :    return resolveReference( key, false );

	push	0
	mov	eax, DWORD PTR _key$[ebp]
	push	eax
	mov	ecx, DWORD PTR _this$[ebp]
	call	?resolveReference@Value@Json@@AAEAAV12@PBD_N@Z ; Json::Value::resolveReference

; 1093 : }

	mov	esp, ebp
	pop	ebp
	ret	4
??AValue@Json@@QAEAAV01@PBD@Z ENDP			; Json::Value::operator[]
_TEXT	ENDS
;	COMDAT xdata$x
xdata$x	SEGMENT
__unwindtable$?resolveReference@Value@Json@@AAEAAV12@PBD_N@Z DD 0ffffffffH
	DD	FLAT:__unwindfunclet$?resolveReference@Value@Json@@AAEAAV12@PBD_N@Z$0
	DD	0ffffffffH
	DD	FLAT:__unwindfunclet$?resolveReference@Value@Json@@AAEAAV12@PBD_N@Z$1
	DD	01H
	DD	FLAT:__unwindfunclet$?resolveReference@Value@Json@@AAEAAV12@PBD_N@Z$2
__ehfuncinfo$?resolveReference@Value@Json@@AAEAAV12@PBD_N@Z DD 019930522H
	DD	03H
	DD	FLAT:__unwindtable$?resolveReference@Value@Json@@AAEAAV12@PBD_N@Z
	DD	2 DUP(00H)
	DD	2 DUP(00H)
	DD	00H
	DD	01H
; Function compile flags: /Odtp
xdata$x	ENDS
;	COMDAT ?resolveReference@Value@Json@@AAEAAV12@PBD_N@Z
_TEXT	SEGMENT
tv151 = -112						; size = 4
tv157 = -108						; size = 4
_this$ = -104						; size = 4
$T31441 = -100						; size = 4
$T31440 = -96						; size = 8
$T31439 = -88						; size = 4
$T31438 = -84						; size = 8
$T31437 = -76						; size = 16
_actualKey$ = -60					; size = 8
_defaultValue$ = -52					; size = 24
_value$ = -24						; size = 4
_it$ = -20						; size = 8
__$EHRec$ = -12						; size = 12
_key$ = 8						; size = 4
_isStatic$ = 12						; size = 1
?resolveReference@Value@Json@@AAEAAV12@PBD_N@Z PROC	; Json::Value::resolveReference, COMDAT
; _this$ = ecx

; 1099 : {

	push	ebp
	mov	ebp, esp
	push	-1
	push	__ehhandler$?resolveReference@Value@Json@@AAEAAV12@PBD_N@Z
	mov	eax, DWORD PTR fs:0
	push	eax
	sub	esp, 100				; 00000064H
	mov	eax, DWORD PTR ___security_cookie
	xor	eax, ebp
	push	eax
	lea	eax, DWORD PTR __$EHRec$[ebp]
	mov	DWORD PTR fs:0, eax
	mov	DWORD PTR _this$[ebp], ecx

; 1100 :    JSON_ASSERT( type_ == nullValue  ||  type_ == objectValue );
; 1101 :    if ( type_ == nullValue )

	mov	eax, DWORD PTR _this$[ebp]
	mov	ecx, DWORD PTR [eax+8]
	shl	ecx, 24					; 00000018H
	sar	ecx, 24					; 00000018H
	jne	SHORT $LN2@resolveRef

; 1102 :       *this = Value( objectValue );

	push	7
	lea	ecx, DWORD PTR $T31437[ebp]
	call	??0Value@Json@@QAE@W4ValueType@1@@Z	; Json::Value::Value
	mov	DWORD PTR tv157[ebp], eax
	mov	edx, DWORD PTR tv157[ebp]
	mov	DWORD PTR tv151[ebp], edx
	mov	DWORD PTR __$EHRec$[ebp+8], 0
	mov	eax, DWORD PTR tv151[ebp]
	push	eax
	mov	ecx, DWORD PTR _this$[ebp]
	call	??4Value@Json@@QAEAAV01@ABV01@@Z	; Json::Value::operator=
	mov	DWORD PTR __$EHRec$[ebp+8], -1
	lea	ecx, DWORD PTR $T31437[ebp]
	call	??1Value@Json@@QAE@XZ			; Json::Value::~Value
$LN2@resolveRef:

; 1103 : #ifndef JSON_VALUE_USE_INTERNAL_MAP
; 1104 :    CZString actualKey( key, isStatic ? CZString::noDuplication 
; 1105 :                                      : CZString::duplicateOnCopy );

	movzx	ecx, BYTE PTR _isStatic$[ebp]
	neg	ecx
	sbb	ecx, ecx
	and	ecx, -2					; fffffffeH
	add	ecx, 2
	push	ecx
	mov	edx, DWORD PTR _key$[ebp]
	push	edx
	lea	ecx, DWORD PTR _actualKey$[ebp]
	call	??0CZString@Value@Json@@QAE@PBDW4DuplicationPolicy@012@@Z ; Json::Value::CZString::CZString
	mov	DWORD PTR __$EHRec$[ebp+8], 1

; 1106 :    ObjectValues::iterator it = value_.map_->lower_bound( actualKey );

	lea	eax, DWORD PTR _actualKey$[ebp]
	push	eax
	lea	ecx, DWORD PTR _it$[ebp]
	push	ecx
	mov	edx, DWORD PTR _this$[ebp]
	mov	ecx, DWORD PTR [edx]
	call	?lower_bound@?$_Tree@V?$_Tmap_traits@VCZString@Value@Json@@V23@U?$less@VCZString@Value@Json@@@std@@V?$allocator@U?$pair@$$CBVCZString@Value@Json@@V23@@std@@@5@$0A@@std@@@std@@QAE?AViterator@12@ABVCZString@Value@Json@@@Z ; std::_Tree<std::_Tmap_traits<Json::Value::CZString,Json::Value,std::less<Json::Value::CZString>,std::allocator<std::pair<Json::Value::CZString const ,Json::Value> >,0> >::lower_bound

; 1107 :    if ( it != value_.map_->end()  &&  (*it).first == actualKey )

	lea	eax, DWORD PTR $T31438[ebp]
	push	eax
	mov	ecx, DWORD PTR _this$[ebp]
	mov	ecx, DWORD PTR [ecx]
	call	?end@?$_Tree@V?$_Tmap_traits@VCZString@Value@Json@@V23@U?$less@VCZString@Value@Json@@@std@@V?$allocator@U?$pair@$$CBVCZString@Value@Json@@V23@@std@@@5@$0A@@std@@@std@@QAE?AViterator@12@XZ ; std::_Tree<std::_Tmap_traits<Json::Value::CZString,Json::Value,std::less<Json::Value::CZString>,std::allocator<std::pair<Json::Value::CZString const ,Json::Value> >,0> >::end
	push	eax
	lea	ecx, DWORD PTR _it$[ebp]
	call	??9const_iterator@?$_Tree@V?$_Tmap_traits@VCZString@Value@Json@@V23@U?$less@VCZString@Value@Json@@@std@@V?$allocator@U?$pair@$$CBVCZString@Value@Json@@V23@@std@@@5@$0A@@std@@@std@@QBE_NABV012@@Z ; std::_Tree<std::_Tmap_traits<Json::Value::CZString,Json::Value,std::less<Json::Value::CZString>,std::allocator<std::pair<Json::Value::CZString const ,Json::Value> >,0> >::const_iterator::operator!=
	movzx	edx, al
	test	edx, edx
	je	SHORT $LN1@resolveRef
	lea	eax, DWORD PTR _actualKey$[ebp]
	push	eax
	lea	ecx, DWORD PTR _it$[ebp]
	call	??Diterator@?$_Tree@V?$_Tmap_traits@VCZString@Value@Json@@V23@U?$less@VCZString@Value@Json@@@std@@V?$allocator@U?$pair@$$CBVCZString@Value@Json@@V23@@std@@@5@$0A@@std@@@std@@QBEAAU?$pair@$$CBVCZString@Value@Json@@V23@@2@XZ ; std::_Tree<std::_Tmap_traits<Json::Value::CZString,Json::Value,std::less<Json::Value::CZString>,std::allocator<std::pair<Json::Value::CZString const ,Json::Value> >,0> >::iterator::operator*
	mov	ecx, eax
	call	??8CZString@Value@Json@@QBE_NABV012@@Z	; Json::Value::CZString::operator==
	movzx	ecx, al
	test	ecx, ecx
	je	SHORT $LN1@resolveRef

; 1108 :       return (*it).second;

	lea	ecx, DWORD PTR _it$[ebp]
	call	??Diterator@?$_Tree@V?$_Tmap_traits@VCZString@Value@Json@@V23@U?$less@VCZString@Value@Json@@@std@@V?$allocator@U?$pair@$$CBVCZString@Value@Json@@V23@@std@@@5@$0A@@std@@@std@@QBEAAU?$pair@$$CBVCZString@Value@Json@@V23@@2@XZ ; std::_Tree<std::_Tmap_traits<Json::Value::CZString,Json::Value,std::less<Json::Value::CZString>,std::allocator<std::pair<Json::Value::CZString const ,Json::Value> >,0> >::iterator::operator*
	add	eax, 8
	mov	DWORD PTR $T31439[ebp], eax
	mov	DWORD PTR __$EHRec$[ebp+8], -1
	lea	ecx, DWORD PTR _actualKey$[ebp]
	call	??1CZString@Value@Json@@QAE@XZ		; Json::Value::CZString::~CZString
	mov	eax, DWORD PTR $T31439[ebp]
	jmp	SHORT $LN3@resolveRef
$LN1@resolveRef:

; 1109 : 
; 1110 :    ObjectValues::value_type defaultValue( actualKey, null );

	push	OFFSET ?null@Value@Json@@2V12@B		; Json::Value::null
	lea	edx, DWORD PTR _actualKey$[ebp]
	push	edx
	lea	ecx, DWORD PTR _defaultValue$[ebp]
	call	??0?$pair@$$CBVCZString@Value@Json@@V23@@std@@QAE@ABVCZString@Value@Json@@ABV34@@Z ; std::pair<Json::Value::CZString const ,Json::Value>::pair<Json::Value::CZString const ,Json::Value>
	mov	BYTE PTR __$EHRec$[ebp+8], 2

; 1111 :    it = value_.map_->insert( it, defaultValue );

	lea	eax, DWORD PTR _defaultValue$[ebp]
	push	eax
	mov	ecx, DWORD PTR _it$[ebp+4]
	push	ecx
	mov	edx, DWORD PTR _it$[ebp]
	push	edx
	lea	eax, DWORD PTR $T31440[ebp]
	push	eax
	mov	ecx, DWORD PTR _this$[ebp]
	mov	ecx, DWORD PTR [ecx]
